******************************************************************************
                  TI ARM Linker PC v18.12.4                    
******************************************************************************
>> Linked Sun May 31 14:28:13 2020

OUTPUT FILE NAME:   <Assignment.out>
ENTRY POINT SYMBOL: "_c_int00"  address: 0000b261


MEMORY CONFIGURATION

         name            origin    length      used     unused   attr    fill
----------------------  --------  ---------  --------  --------  ----  --------
  FLASH                 00000000   00100000  00013270  000ecd90  R  X
  SRAM                  20000000   00040000  00008764  0003789c  RW X


SEGMENT ALLOCATION MAP

run origin  load origin   length   init length attrs members
----------  ----------- ---------- ----------- ----- -------
00000000    00000000    00013280   00013280    r-x
  00000000    00000000    0000003c   0000003c    r-- .resetVecs
  00000040    00000040    0000ecc2   0000ecc2    r-x .text
  0000ed08    0000ed08    00004152   00004152    r-- .const
  00012e60    00012e60    00000420   00000420    r-- .cinit
20000000    20000000    00008764   00000000    rw-
  20000000    20000000    00000360   00000000    rw- .vecs
  20000360    20000360    00004000   00000000    rw- .stack
  20004360    20004360    000036f8   00000000    rw- .bss
  20007a58    20007a58    00000d0c   00000000    rw- .data


SECTION ALLOCATION MAP

 output                                  attributes/
section   page    origin      length       input sections
--------  ----  ----------  ----------   ----------------
.text      0    00000040    0000ecc2     
                  00000040    00000a4e     rtsv7M4_T_le_v4SPD16_eabi.lib : _printfi.c.obj (.text:__TI_printfi)
                  00000a8e    00000002                                   : _lock.c.obj (.text:_nop)
                  00000a90    000006a4     motorlib.lib : motorlib.obj (.text)
                  00001134    00000004     driverlib.lib : i2c.obj (.text:I2CMasterControl)
                  00001138    00000430     sysbios.aem4f : BIOS.obj (.text:ti_sysbios_family_arm_m3_Hwi_excDumpRegs__I)
                  00001568    000003d0     user_interface.obj (.text:DrawDataOnGraph)
                  00001938    00000370     grlib.lib : image.obj (.text:InternalImageDraw)
                  00001ca8    0000034c     ti.targets.arm.rtsarm.aem4f : System.oem4f (.text:xdc_runtime_System_doPrint__I)
                  00001ff4    000002e4     grlib.lib : image.obj (.text:PixelTransparentDraw)
                  000022d8    000002a0     rtsv7M4_T_le_v4SPD16_eabi.lib : mktime.c.obj (.text:__mktime32)
                  00002578    00000270                                   : _printfi.c.obj (.text:_pconv_a)
                  000027e8    0000026c     pinout.obj (.text:PinoutSet)
                  00002a54    00000268     touch.obj (.text:TouchScreenDebouncer)
                  00002cbc    00000256     grlib.lib : string.obj (.text:GrFontGlyphRender)
                  00002f12    00000002     rtsv7M4_T_le_v4SPD16_eabi.lib : div0.asm.obj (.text)
                  00002f14    0000024c     sensor_api.obj (.text:swiCurrent)
                  00003160    0000020c     drivers_tivaware.aem4f : UARTTiva.oem4f (.text:UARTTiva_open)
                  0000336c    00000204     Boot.aem4f : Boot_sysctl.oem4f (.text:ti_catalog_arm_cortexm4_tiva_ce_Boot_sysCtlClockFreqSetI__I)
                  00003570    00000200     driverlib.lib : sysctl.obj (.text:SysCtlClockFreqSet)
                  00003770    00000200     rtsv7M4_T_le_v4SPD16_eabi.lib : s_exp2.c.obj (.text:exp2)
                  00003970    000001f8     user_interface.obj (.text:setupGraphScreen)
                  00003b68    000001f4     sysbios.aem4f : BIOS.obj (.text:ti_sysbios_family_arm_m3_Hwi_excHandlerMax__I)
                  00003d5c    000001e8     empty_min_pem4f.oem4f (.text:xdc_runtime_System_printfExtend__I)
                  00003f44    000001e4     Kentec320x240x16_ssd2119_spi.obj (.text:Kentec320x240x16_SSD2119Init)
                  00004128    000001dc     Kentec320x240x16_ssd2119_spi.obj (.text:Kentec320x240x16_SSD2119PixelDrawMultiple)
                  00004304    000001d0     rtsv7M4_T_le_v4SPD16_eabi.lib : _printfi.c.obj (.text:_pconv_g)
                  000044d4    000001b6                                   : fd_add_t2.asm.obj (.text)
                  0000468a    00000002     empty_min_pem4f.oem4f (.text:ti_sysbios_BIOS_nullFunc__I)
                  0000468c    000001a4     user_interface.obj (.text:UserInterfaceInit)
                  00004830    00000194     grlib.lib : canvas.obj (.text:CanvasPaint)
                  000049c4    00000188     user_interface.obj (.text:doChangeToSetting)
                  00004b4c    00000178     touch.obj (.text:TouchScreenIntHandler)
                  00004cc4    00000176     grlib.lib : pushbutton.obj (.text:RectangularButtonPaint)
                  00004e3a    00000006     driverlib.lib : gpio.obj (.text:GPIOIntClear)
                  00004e40    00000174     sysbios.aem4f : BIOS.obj (.text:ti_sysbios_family_arm_m3_Hwi_excBusFault__I)
                  00004fb4    00000170     drivers_tivaware.aem4f : PWMTiva.oem4f (.text:PWMTiva_open)
                  00005124    00000004     driverlib.lib : i2c.obj (.text:I2CMasterDataGet)
                  00005128    00000164     sysbios.aem4f : BIOS.obj (.text:ti_sysbios_family_arm_m3_Hwi_excUsageFault__I)
                  0000528c    0000015c     motor_api.obj (.text:checkSpeedSwi)
                  000053e8    00000158     rtsv7M4_T_le_v4SPD16_eabi.lib : e_sqrt.c.obj (.text:sqrt)
                  00005540    00000154     empty_min.obj (.text:setupSensorsAndGUI)
                  00005694    00000004     driverlib.lib : i2c.obj (.text:I2CMasterDataPut)
                  00005698    00000154     sysbios.aem4f : BIOS.obj (.text:ti_sysbios_knl_Semaphore_pend__E)
                  000057ec    00000150     drivers_tivaware.aem4f : GPIOTiva.oem4f (.text:GPIO_setConfig)
                  0000593c    0000014c     bmi160.obj (.text:BMI160GetAccelData)
                  00005a88    00000148     sysbios.aem4f : BIOS.obj (.text:ti_sysbios_family_arm_m3_Hwi_excMemFault__I)
                  00005bd0    0000013c     rtsv7M4_T_le_v4SPD16_eabi.lib : _printfi.c.obj (.text:_pconv_e)
                  00005d0c    00000136                                   : fd_div_t2.asm.obj (.text)
                  00005e42    00000002     empty_min_pem4f.oem4f (.text:xdc_runtime_Startup_reset__I)
                  00005e44    00000134     rtsv7M4_T_le_v4SPD16_eabi.lib : localtim.c.obj (.text:__localtime32)
                  00005f78    00000132     driverlib.lib : gpio.obj (.text:GPIOPadConfigSet)
                  000060aa    00000002     --HOLE-- [fill = 0]
                  000060ac    00000124     rtsv7M4_T_le_v4SPD16_eabi.lib : _printfi.c.obj (.text:fcvt)
                  000061d0    00000118     ti.targets.arm.rtsarm.aem4f : Error.oem4f (.text:xdc_runtime_Error_policyDefault__E)
                  000062e8    00000114     drivers_tivaware.aem4f : PWMTimerTiva.oem4f (.text:PWMTimerTiva_open)
                  000063fc    00000110     sensor_api.obj (.text:initSensors)
                  0000650c    00000110     rtsv7M4_T_le_v4SPD16_eabi.lib : s_scalbn.c.obj (.text:scalbn)
                  0000661c    0000010c     Kentec320x240x16_ssd2119_spi.obj (.text:Kentec320x240x16_SSD2119RectFill)
                  00006728    0000010c     touch.obj (.text:TouchScreenInit)
                  00006834    00000004     driverlib.lib : uart.obj (.text:UARTIntClear)
                  00006838    00000108     sysbios.aem4f : BIOS.obj (.text:ti_sysbios_family_arm_lm4_Timer_start__E)
                  00006940    00000106     grlib.lib : line.obj (.text:GrLineDraw)
                  00006a46    00000002     --HOLE-- [fill = 0]
                  00006a48    00000100     ti.targets.arm.rtsarm.aem4f : Core-mem.oem4f (.text:xdc_runtime_Core_createObject__I)
                  00006b48    000000fc     rtsv7M4_T_le_v4SPD16_eabi.lib : fd_mul_t2.asm.obj (.text)
                  00006c44    000000f8     ti.targets.arm.rtsarm.aem4f : Startup.oem4f (.text:xdc_runtime_Startup_startMods__I)
                  00006d3c    000000f4     sensor_api.obj (.text:initTemp)
                  00006e30    000000f4     sysbios.aem4f : m3_Hwi_asm.obj (.text:ti_sysbios_family_arm_m3_Hwi_dispatch__I)
                  00006f24    000000f2     grlib.lib : pushbutton.obj (.text:RectangularButtonClick)
                  00007016    000000f0     drivers_tivaware.aem4f : PWMTiva.oem4f (.text:PWMTiva_setDuty)
                  00007106    00000002     --HOLE-- [fill = 0]
                  00007108    000000e8     grlib.lib : widget.obj (.text:WidgetMessageQueueAdd)
                  000071f0    000000e4     sensor_api.obj (.text:taskTemp)
                  000072d4    000000e0     drivers_tivaware.aem4f : I2CTiva.oem4f (.text:I2CTiva_open)
                  000073b4    00000004     grlib.lib : widget.obj (.text:WidgetDefaultMsgProc)
                  000073b8    000000dc     sysbios.aem4f : BIOS.obj (.text:ti_sysbios_knl_Task_sleep__E)
                  00007494    000000d6     drivers_tivaware.aem4f : I2CTiva.oem4f (.text:I2CTiva_hwiFxn)
                  0000756a    00000006     driverlib.lib : gpio.obj (.text:GPIOPinRead)
                  00007570    000000d4     sysbios.aem4f : BIOS.obj (.text:ti_sysbios_heaps_HeapMem_alloc__E)
                  00007644    000000d0     user_interface.obj (.text:drawDayNight)
                  00007714    000000d0     sensor_api.obj (.text:taskAcceleration)
                  000077e4    00000004     rtsv7M4_T_le_v4SPD16_eabi.lib : exit.c.obj (.text:abort:abort)
                  000077e8    000000cc     sysbios.aem4f : BIOS.obj (.text:ti_sysbios_knl_Task_Instance_init__E)
                  000078b4    000000cc     ti.targets.arm.rtsarm.aem4f : Core-smem.oem4f (.text:xdc_runtime_Core_constructObject__I)
                  00007980    000000c8     sensor_api.obj (.text:initAcceleration)
                  00007a48    000000c8     motor_api.obj (.text:setSpeed)
                  00007b10    000000c4     driverlib.lib : eeprom.obj (.text:EEPROMProgram)
                  00007bd4    000000c4     grlib.lib : string.obj (.text:GrDefaultStringRenderer)
                  00007c98    000000c0               : line.obj (.text:GrLineClip)
                  00007d58    000000bc     sysbios.aem4f : BIOS.obj (.text:ti_sysbios_family_arm_m3_Hwi_excDebugMon__I)
                  00007e14    00000004     empty_min_pem4f.oem4f (.text:ti_sysbios_BIOS_RtsGateProxy_enter__E)
                  00007e18    000000bc     sysbios.aem4f : BIOS.obj (.text:ti_sysbios_family_arm_m3_Hwi_excHardFault__I)
                  00007ed4    00000004     empty_min_pem4f.oem4f (.text:ti_sysbios_BIOS_RtsGateProxy_leave__E)
                  00007ed8    000000bc     sysbios.aem4f : BIOS.obj (.text:ti_sysbios_knl_Task_Instance_finalize__E)
                  00007f94    000000b8     EK_TM4C1294XL.obj (.text:EK_TM4C1294XL_initGeneral)
                  0000804c    000000b8     Kentec320x240x16_ssd2119_spi.obj (.text:InitSPILCDInterface)
                  00008104    000000b8     drivers_tivaware.aem4f : PWMTimerTiva.oem4f (.text:PWMTimerTiva_setDuty)
                  000081bc    000000b4     grlib.lib : widget.obj (.text:WidgetMessageSendPostOrder)
                  00008270    000000b4     sensor_api.obj (.text:initLight)
                  00008324    000000b1     rtsv7M4_T_le_v4SPD16_eabi.lib : _printfi.c.obj (.text:_ltostr)
                  000083d5    00000001     --HOLE-- [fill = 0]
                  000083d6    000000b0     bmi160.obj (.text:BMI160Init)
                  00008486    000000ac     drivers_tivaware.aem4f : UARTTiva.oem4f (.text:readTaskBlocking)
                  00008532    00000006     driverlib.lib : gpio.obj (.text:GPIOPinWrite)
                  00008538    000000ac     sysbios.aem4f : BIOS.obj (.text:ti_sysbios_family_arm_lm4_Timer_enableTiva__I)
                  000085e4    000000a4     user_interface.obj (.text:initSettingValues)
                  00008688    000000a0     empty_min.obj (.text:DrawDateTime)
                  00008728    000000a0     auto_init.aem4f : auto_init.oem4f (.text)
                  000087c8    000000a0     sensor_api.obj (.text:initCurrent)
                  00008868    000000a0     ti.targets.arm.rtsarm.aem4f : Text.oem4f (.text:xdc_runtime_Text_putMod__E)
                  00008908    0000009c     user_interface.obj (.text:decreaseSetting)
                  000089a4    0000009c     motor_api.obj (.text:initMotor)
                  00008a40    0000009c     rtsv7M4_T_le_v4SPD16_eabi.lib : memcpy_t2.asm.obj (.text)
                  00008adc    0000009a     ti.targets.arm.rtsarm.aem4f : Text.oem4f (.text:xdc_runtime_Text_putSite__E)
                  00008b76    00000098     drivers_tivaware.aem4f : UARTTiva.oem4f (.text:UARTTiva_readPolling)
                  00008c0e    00000002     --HOLE-- [fill = 0]
                  00008c10    00000098     Boot.aem4f : Boot.oem4f (.text:ti_catalog_arm_cortexm4_tiva_ce_Boot_sysCtlClockFreqSet__E)
                  00008ca8    00000098     empty_min.obj (.text:userInterfaceFxn)
                  00008d40    00000096     rtsv7M4_T_le_v4SPD16_eabi.lib : ull_div_t2.asm.obj (.text)
                  00008dd6    00000094     drivers_tivaware.aem4f : UARTTiva.oem4f (.text:UARTTiva_write)
                  00008e6a    00000006     grlib.lib : string.obj (.text:GrContextFontSet)
                  00008e70    00000094     sysbios.aem4f : BIOS.obj (.text:ti_sysbios_family_arm_m3_Hwi_Instance_init__E)
                  00008f04    00000004                   : BIOS.obj (.text:ti_sysbios_family_arm_lm4_Timer_masterEnable__I)
                  00008f08    00000094                   : BIOS.obj (.text:ti_sysbios_family_arm_m3_Hwi_initNVIC__E)
                  00008f9c    00000004     empty_min_pem4f.oem4f (.text:ti_sysbios_family_arm_m3_Hwi_destruct)
                  00008fa0    00000094     sysbios.aem4f : BIOS.obj (.text:ti_sysbios_knl_Task_postInit__I)
                  00009034    0000008c     drivers_tivaware.aem4f : GPIOTiva.oem4f (.text:GPIO_init)
                  000090c0    0000008c                            : UARTTiva.oem4f (.text:UARTTiva_control)
                  0000914c    0000008c     empty_min.obj (.text:main)
                  000091d8    0000008c     sysbios.aem4f : m3_TaskSupport_asm.obj (.text:ti_sysbios_family_arm_m3_TaskSupport_buildTaskStack)
                  00009264    0000008a     drivers_tivaware.aem4f : UARTTiva.oem4f (.text:readIsrTextBlocking)
                  000092ee    00000002     --HOLE-- [fill = 0]
                  000092f0    00000088                            : PWMTiva.oem4f (.text:PWMTiva_control)
                  00009378    00000086     grlib.lib : rectangle.obj (.text:GrRectFill)
                  000093fe    00000086     rtsv7M4_T_le_v4SPD16_eabi.lib : fd_cmp_t2.asm.obj (.text:__aeabi_cdcmple)
                  00009484    00000086                                   : fd_cmp_t2.asm.obj (.text:__aeabi_cdrcmple)
                  0000950a    00000006     driverlib.lib : i2c.obj (.text:I2CMasterIntDisable)
                  00009510    00000084     sysbios.aem4f : BIOS.obj (.text:ti_sysbios_family_arm_m3_Hwi_postInit__I)
                  00009594    00000082     drivers_tivaware.aem4f : UARTTiva.oem4f (.text:readIsrTextCallback)
                  00009616    00000002     --HOLE-- [fill = 0]
                  00009618    00000080     user_interface.obj (.text:StartStopMotor)
                  00009698    0000007e     drivers_tivaware.aem4f : I2CTiva.oem4f (.text:I2CTiva_transfer)
                  00009716    00000002     --HOLE-- [fill = 0]
                  00009718    0000007c     user_interface.obj (.text:increaseSetting)
                  00009794    00000004     empty_min_pem4f.oem4f (.text:ti_sysbios_family_arm_m3_TaskSupport_Module__startupDone__S)
                  00009798    0000007c     sysbios.aem4f : BIOS.obj (.text:ti_sysbios_heaps_HeapMem_free__E)
                  00009814    0000007a     driverlib.lib : adc.obj (.text:ADCSequenceStepConfigure)
                  0000988e    0000007a     drivers_tivaware.aem4f : UARTTiva.oem4f (.text:readTaskCallback)
                  00009908    0000007a     rtsv7M4_T_le_v4SPD16_eabi.lib : memset_t2.asm.obj (.text)
                  00009982    00000002     --HOLE-- [fill = 0]
                  00009984    00000074     user_interface.obj (.text:DrawSettingsParameters)
                  000099f8    00000070     opt3001.obj (.text:OPT3001Convert)
                  00009a68    00000070     sysbios.aem4f : BIOS.obj (.text:ti_sysbios_knl_Clock_workFunc__E)
                  00009ad8    00000070                   : BIOS.obj (.text:ti_sysbios_knl_Task_exit__E)
                  00009b48    0000006e     tmp107.obj (.text:TMP107WaitForEcho)
                  00009bb6    0000006e     rtsv7M4_T_le_v4SPD16_eabi.lib : _printfi.c.obj (.text:_mcpy)
                  00009c24    0000006e                                   : fd_tos_t2.asm.obj (.text)
                  00009c92    0000006e                                   : ll_div_t2.asm.obj (.text)
                  00009d00    0000006d     ti.targets.arm.rtsarm.aem4f : System.oem4f (.text:xdc_runtime_System_formatNum__I)
                  00009d6d    00000003     --HOLE-- [fill = 0]
                  00009d70    0000006c     drivers_tivaware.aem4f : PWMTimerTiva.oem4f (.text:PWMTimerTiva_control)
                  00009ddc    0000006c     rtsv7M4_T_le_v4SPD16_eabi.lib : asctime.c.obj (.text:asctime)
                  00009e48    0000006c     empty_min_pem4f.oem4f (.text:ti_sysbios_family_arm_m3_Hwi_Object__create__S)
                  00009eb4    00000004     empty_min_pem4f.oem4f (.text:ti_sysbios_hal_Hwi_HwiProxy_delete)
                  00009eb8    0000006c     sysbios.aem4f : BIOS.obj (.text:ti_sysbios_knl_Swi_restoreHwi__E)
                  00009f24    0000006c     drivers_tivaware.aem4f : UARTTiva.oem4f (.text:writeData)
                  00009f90    0000006c     ti.targets.arm.rtsarm.aem4f : Error.oem4f (.text:xdc_runtime_Error_print__E)
                  00009ffc    0000006c                                 : Memory.oem4f (.text:xdc_runtime_Memory_alloc__E)
                  0000a068    0000006a     grlib.lib : string.obj (.text:GrStringWidthGet)
                  0000a0d2    0000006a     drivers_tivaware.aem4f : PWMTiva.oem4f (.text:PWMTiva_close)
                  0000a13c    0000006a     tmp107.obj (.text:TMP107InitUart)
                  0000a1a6    00000002     --HOLE-- [fill = 0]
                  0000a1a8    00000068     grlib.lib : context.obj (.text:GrContextInit)
                  0000a210    00000068     driverlib.lib : interrupt.obj (.text:IntEnable)
                  0000a278    00000068     Kentec320x240x16_ssd2119_spi.obj (.text:Kentec320x240x16_SSD2119LineDrawH)
                  0000a2e0    00000068     Kentec320x240x16_ssd2119_spi.obj (.text:Kentec320x240x16_SSD2119LineDrawV)
                  0000a348    00000068     rtsv7M4_T_le_v4SPD16_eabi.lib : copy_decompress_lzss.c.obj (.text:decompress:lzss:__TI_decompress_lzss)
                  0000a3b0    00000066     grlib.lib : rectangle.obj (.text:GrRectDraw)
                  0000a416    00000066     opt3001.obj (.text:OPT3001ReadLight)
                  0000a47c    00000066     ti.targets.arm.rtsarm.aem4f : Core-mem.oem4f (.text:xdc_runtime_Core_deleteObject__I)
                  0000a4e2    00000002     --HOLE-- [fill = 0]
                  0000a4e4    00000064     user_interface.obj (.text:DrawAccelerationSettingsPage)
                  0000a548    00000064     user_interface.obj (.text:DrawCurrentSettingsPage)
                  0000a5ac    00000064     user_interface.obj (.text:DrawTemperatureSettingsPage)
                  0000a610    00000064     drivers_tivaware.aem4f : GPIOTiva.oem4f (.text:GPIO_hwiIntFxn)
                  0000a674    00000064     opt3001.obj (.text:OPT3001Test)
                  0000a6d8    00000064     grlib.lib : widget.obj (.text:WidgetMessageQueueProcess)
                  0000a73c    00000064     user_interface.obj (.text:eStopGUI)
                  0000a7a0    00000064     rtsv7M4_T_le_v4SPD16_eabi.lib : s_frexp.c.obj (.text:frexp)
                  0000a804    00000004     empty_min_pem4f.oem4f (.text:ti_sysbios_heaps_HeapMem_Module_GateProxy_enter__E)
                  0000a808    00000064     sysbios.aem4f : BIOS.obj (.text:ti_sysbios_family_arm_lm4_Timer_Module_startup__E)
                  0000a86c    00000064     empty_min_pem4f.oem4f (.text:ti_sysbios_family_arm_m3_Hwi_create)
                  0000a8d0    00000064     sysbios.aem4f : BIOS.obj (.text:ti_sysbios_family_arm_m3_Hwi_dispatchC__I)
                  0000a934    00000064     empty_min_pem4f.oem4f (.text:ti_sysbios_hal_Hwi_create)
                  0000a998    00000064     sysbios.aem4f : BIOS.obj (.text:ti_sysbios_knl_Semaphore_post__E)
                  0000a9fc    00000062     grlib.lib : context.obj (.text:GrContextClipRegionSet)
                  0000aa5e    00000062     drivers_tivaware.aem4f : I2CTiva.oem4f (.text:I2CTiva_primeTransfer)
                  0000aac0    00000060     driverlib.lib : timer.obj (.text:TimerConfigure)
                  0000ab20    00000060     Kentec320x240x16_ssd2119_spi.obj (.text:WriteDataSPI)
                  0000ab80    00000060     sensor_api.obj (.text:taskLight)
                  0000abe0    0000005e     tmp107.obj (.text:TMP107Init)
                  0000ac3e    0000005e     drivers_tivaware.aem4f : UARTTiva.oem4f (.text:readIsrBinaryBlocking)
                  0000ac9c    0000005c     grlib.lib : widget.obj (.text:WidgetMessageSendPreOrder)
                  0000acf8    0000005c     Kentec320x240x16_ssd2119_spi.obj (.text:WriteCommandSPI)
                  0000ad54    0000005c     sensor_api.obj (.text:getAcceleration)
                  0000adb0    0000005c     sensor_api.obj (.text:getBoardTemp)
                  0000ae0c    0000005c     sensor_api.obj (.text:getLight)
                  0000ae68    0000005c     sensor_api.obj (.text:getMotorTemp)
                  0000aec4    0000005c     sensor_api.obj (.text:getPower)
                  0000af20    0000005c     sysbios.aem4f : BIOS.obj (.text:ti_sysbios_knl_Swi_run__I)
                  0000af7c    00000004     empty_min_pem4f.oem4f (.text:ti_sysbios_heaps_HeapMem_Module_GateProxy_leave__E)
                  0000af80    0000005c     sysbios.aem4f : BIOS.obj (.text:ti_sysbios_knl_Swi_schedule__I)
                  0000afdc    00000004     empty_min_pem4f.oem4f (.text:ti_sysbios_knl_Clock_TimerProxy_getMaxTicks__E)
                  0000afe0    0000005c     sysbios.aem4f : BIOS.obj (.text:ti_sysbios_knl_Task_Module_startup__E)
                  0000b03c    0000005c     empty_min_pem4f.oem4f (.text:ti_sysbios_knl_Task_create)
                  0000b098    0000005c     sysbios.aem4f : BIOS.obj (.text:ti_sysbios_knl_Task_startCore__E)
                  0000b0f4    0000005b     ti.targets.arm.rtsarm.aem4f : Text.oem4f (.text:xdc_runtime_Text_putLab__E)
                  0000b14f    00000001     --HOLE-- [fill = 0]
                  0000b150    0000005a     grlib.lib : string.obj (.text:FontWideGlyphDataGet)
                  0000b1aa    0000005a     tmp107.obj (.text:TMP107Decode5bitAddress)
                  0000b204    0000005a     tmp107.obj (.text:TMP107Encode5bitAddress)
                  0000b25e    00000002     --HOLE-- [fill = 0]
                  0000b260    00000058     boot.aem4f : boot.oem4f (.text)
                  0000b2b8    00000058     user_interface.obj (.text:DrawMotorSettingsPage)
                  0000b310    00000058     rtsv7M4_T_le_v4SPD16_eabi.lib : hostwrite.c.obj (.text:HOSTwrite)
                  0000b368    00000058     driverlib.lib : timer.obj (.text:TimerControlTrigger)
                  0000b3c0    00000058     empty_min_pem4f.oem4f (.text:ti_sysbios_family_arm_m3_Hwi_construct)
                  0000b418    00000058     sysbios.aem4f : m3_Hwi_asm_switch.obj (.text:ti_sysbios_family_arm_m3_Hwi_initStacks__E)
                  0000b470    00000056     driverlib.lib : gpio.obj (.text:GPIOIntTypeSet)
                  0000b4c6    00000056     rtsv7M4_T_le_v4SPD16_eabi.lib : _printfi.c.obj (.text:_pconv_f)
                  0000b51c    00000054     EK_TM4C1294XL.obj (.text:EK_TM4C1294XL_initUART)
                  0000b570    00000054     empty_min.obj (.text:getCurrentDateTime)
                  0000b5c4    00000054     rtsv7M4_T_le_v4SPD16_eabi.lib : ltoa.c.obj (.text:ltoa)
                  0000b618    00000054     drivers_tivaware.aem4f : UARTTiva.oem4f (.text:readIsrBinaryCallback)
                  0000b66c    00000004     empty_min_pem4f.oem4f (.text:ti_sysbios_knl_Clock_destruct)
                  0000b670    00000054     sysbios.aem4f : BIOS.obj (.text:ti_sysbios_family_arm_lm4_Timer_initDevice__I)
                  0000b6c4    00000054     ti.targets.arm.rtsarm.aem4f : Assert.oem4f (.text:xdc_runtime_Assert_raise__I)
                  0000b718    00000052     tmp107.obj (.text:TMP107SetConfig)
                  0000b76a    00000052     rtsv7M4_T_le_v4SPD16_eabi.lib : _printfi.c.obj (.text:_ecpy)
                  0000b7bc    00000050     driverlib.lib : adc.obj (.text:ADCSequenceConfigure)
                  0000b80c    00000050     drivers_tivaware.aem4f : GPIOTiva.oem4f (.text:GPIO_setCallback)
                  0000b85c    00000050                            : GPIOTiva.oem4f (.text:GPIO_write)
                  0000b8ac    00000050     opt3001.obj (.text:OPT3001WriteI2C)
                  0000b8fc    00000050     driverlib.lib : sysctl.obj (.text:SysCtlPeripheralReset)
                  0000b94c    00000050     tmp107.obj (.text:TMP107LastDevicePoll)
                  0000b99c    00000050     drivers_tivaware.aem4f : UARTTiva.oem4f (.text:UARTTiva_writeCancel)
                  0000b9ec    00000050     Boot.aem4f : Boot_sysctl.oem4f (.text:_SysCtlFrequencyGet)
                  0000ba3c    00000004     empty_min_pem4f.oem4f (.text:ti_sysbios_knl_Queue_destruct)
                  0000ba40    00000050     sysbios.aem4f : BIOS.obj (.text:ti_sysbios_family_arm_m3_Hwi_Module_startup__E)
                  0000ba90    00000050                   : BIOS.obj (.text:ti_sysbios_knl_Clock_Instance_init__E)
                  0000bae0    00000050     ti.targets.arm.rtsarm.aem4f : Startup.oem4f (.text:xdc_runtime_Startup_exec__E)
                  0000bb30    00000050                                 : Text.oem4f (.text:xdc_runtime_Text_visitRope2__I)
                  0000bb80    0000004c     driverlib.lib : i2c.obj (.text:I2CMasterInitExpClk)
                  0000bbcc    0000004c     drivers_tivaware.aem4f : UARTTiva.oem4f (.text:UARTTiva_close)
                  0000bc18    0000004c     grlib.lib : widget.obj (.text:WidgetRemove)
                  0000bc64    0000004c     rtsv7M4_T_le_v4SPD16_eabi.lib : atoi.c.obj (.text:atoi)
                  0000bcb0    0000004c                                   : cpy_tbl.c.obj (.text:copy_in)
                  0000bcfc    0000004c                                   : snprintf.c.obj (.text:snprintf)
                  0000bd48    0000004c     sysbios.aem4f : BIOS.obj (.text:ti_sysbios_family_arm_lm4_Timer_setAvailMask__E)
                  0000bd94    00000004     empty_min_pem4f.oem4f (.text:ti_sysbios_knl_Semaphore_destruct)
                  0000bd98    0000004c     sysbios.aem4f : BIOS.obj (.text:ti_sysbios_heaps_HeapMem_getStats__E)
                  0000bde4    00000004     ti.targets.arm.rtsarm.aem4f : Error.oem4f (.text:xdc_runtime_Error_getSite__E)
                  0000bde8    0000004c     sysbios.aem4f : BIOS.obj (.text:ti_sysbios_knl_Swi_runLoop__I)
                  0000be34    00000004     empty_min_pem4f.oem4f (.text:xdc_runtime_System_Module_GateProxy_enter__E)
                  0000be38    0000004c     sysbios.aem4f : BIOS.obj (.text:ti_sysbios_knl_Task_allBlockedFunction__I)
                  0000be84    00000004     empty_min_pem4f.oem4f (.text:xdc_runtime_System_Module_GateProxy_leave__E)
                  0000be88    0000004c     sysbios.aem4f : BIOS.obj (.text:ti_sysbios_knl_Task_schedule__I)
                  0000bed4    0000004a     drivers_tivaware.aem4f : PWMTimerTiva.oem4f (.text:PWMTimerTiva_close)
                  0000bf1e    0000004a     grlib.lib : string.obj (.text:UpdateContextCharMapping)
                  0000bf68    00000048     bmi160.obj (.text:BMI160WriteI2C)
                  0000bfb0    00000048     driverlib.lib : gpio.obj (.text:GPIOPinConfigure)
                  0000bff8    00000048     rtsv7M4_T_le_v4SPD16_eabi.lib : hosttime.c.obj (.text:HOSTtime)
                  0000c040    00000048     driverlib.lib : sysctl.obj (.text:_SysCtlFrequencyGet)
                  0000c088    00000048     rtsv7M4_T_le_v4SPD16_eabi.lib : fd_toi_t2.asm.obj (.text)
                  0000c0d0    00000048     sysbios.aem4f : BIOS.obj (.text:ti_sysbios_family_arm_lm4_Timer_enableTimers__I)
                  0000c118    00000048                   : BIOS.obj (.text:ti_sysbios_family_arm_m3_Hwi_disableInterrupt__E)
                  0000c160    00000048                   : BIOS.obj (.text:ti_sysbios_family_arm_m3_Hwi_enableInterrupt__E)
                  0000c1a8    00000048                   : BIOS.obj (.text:ti_sysbios_family_arm_m3_Hwi_excReserved__I)
                  0000c1f0    00000046     grlib.lib : line.obj (.text:GrLineDrawH)
                  0000c236    00000046               : line.obj (.text:GrLineDrawV)
                  0000c27c    00000046     Kentec320x240x16_ssd2119_spi.obj (.text:Kentec320x240x16_SSD2119PixelDraw)
                  0000c2c2    00000046     drivers_tivaware.aem4f : RingBuf.oem4f (.text:RingBuf_put)
                  0000c308    00000046     driverlib.lib : uart.obj (.text:UARTConfigSetExpClk)
                  0000c34e    00000046     ti.targets.arm.rtsarm.aem4f : Core-params.oem4f (.text:xdc_runtime_Core_assignParams__I)
                  0000c394    00000044     bmi160.obj (.text:BMI160InterruptThreshold)
                  0000c3d8    00000044     rtsv7M4_T_le_v4SPD16_eabi.lib : fd_tou_t2.asm.obj (.text)
                  0000c41c    00000044     user_interface.obj (.text:setupEEPROM)
                  0000c460    00000044     sysbios.aem4f : BIOS.obj (.text:ti_sysbios_family_arm_lm4_Timer_isrStub__E)
                  0000c4a4    00000004     ti.targets.arm.rtsarm.aem4f : System.oem4f (.text:xdc_runtime_System_aprintf_va__F)
                  0000c4a8    00000044     sysbios.aem4f : BIOS.obj (.text:ti_sysbios_family_arm_m3_Hwi_getStackInfo__E)
                  0000c4ec    00000004     ti.targets.arm.rtsarm.aem4f : System.oem4f (.text:xdc_runtime_System_printf_va__F)
                  0000c4f0    00000044     sysbios.aem4f : BIOS.obj (.text:ti_sysbios_knl_Swi_post__E)
                  0000c534    00000044     ti.targets.arm.rtsarm.aem4f : Error.oem4f (.text:xdc_runtime_Error_setX__E)
                  0000c578    00000044                                 : SysMin.oem4f (.text:xdc_runtime_SysMin_flush__E)
                  0000c5bc    00000044                                 : Text.oem4f (.text:xdc_runtime_Text_xprintf__I)
                  0000c600    00000042     bmi160.obj (.text:BMI160ReadI2C)
                  0000c642    00000042     drivers_tivaware.aem4f : UARTTiva.oem4f (.text:UARTTiva_hwiIntFxn)
                  0000c684    00000042                            : UARTTiva.oem4f (.text:UARTTiva_writePolling)
                  0000c6c6    00000002     --HOLE-- [fill = 0]
                  0000c6c8    00000040     driverlib.lib : eeprom.obj (.text:EEPROMInit)
                  0000c708    00000040     opt3001.obj (.text:OPT3001ReadI2C)
                  0000c748    00000040     drivers_tivaware.aem4f : RingBuf.oem4f (.text:RingBuf_get)
                  0000c788    00000040                            : UARTTiva.oem4f (.text:UARTTiva_read)
                  0000c7c8    00000040     user_interface.obj (.text:removeAllWidgets)
                  0000c808    00000040     rtsv7M4_T_le_v4SPD16_eabi.lib : u_divt2.asm.obj (.text)
                  0000c848    00000040                                   : sprintf.c.obj (.text:sprintf)
                  0000c888    00000040     sysbios.aem4f : BIOS.obj (.text:ti_sysbios_family_arm_lm4_Timer_startup__E)
                  0000c8c8    00000040                   : BIOS.obj (.text:ti_sysbios_heaps_HeapMem_Instance_init__E)
                  0000c908    0000003e     rtsv7M4_T_le_v4SPD16_eabi.lib : _printfi.c.obj (.text:_fcpy)
                  0000c946    00000002     --HOLE-- [fill = 0]
                  0000c948    0000003c     EK_TM4C1294XL.obj (.text:EK_TM4C1294XL_initI2C)
                  0000c984    0000003c     driverlib.lib : ssi.obj (.text:SSIConfigSetExpClk)
                  0000c9c0    0000003c     tmp107.obj (.text:TMP107DecodeTemperatureResult)
                  0000c9fc    0000003c     driverlib.lib : eeprom.obj (.text:_EEPROMSectorMaskSet)
                  0000ca38    0000003c     sysbios.aem4f : BIOS.obj (.text:ti_sysbios_family_arm_m3_Hwi_excSvCall__I)
                  0000ca74    00000004     --HOLE-- [fill = 0]
                  0000ca78    0000003c                   : BIOS.obj (.text:ti_sysbios_heaps_HeapMem_init__I)
                  0000cab4    00000004     --HOLE-- [fill = 0]
                  0000cab8    0000003c                   : BIOS.obj (.text:ti_sysbios_knl_Swi_restore__E)
                  0000caf4    0000003a     grlib.lib : string.obj (.text:FontGlyphDataGet)
                  0000cb2e    0000003a     drivers_tivaware.aem4f : I2CTiva.oem4f (.text:I2CTiva_completeTransfer)
                  0000cb68    00000038     user_interface.obj (.text:DrawHomeScreen)
                  0000cba0    00000038     driverlib.lib : eeprom.obj (.text:EEPROMRead)
                  0000cbd8    00000038     drivers_tivaware.aem4f : I2C.oem4f (.text:I2C_init)
                  0000cc10    00000038                            : PWM.oem4f (.text:PWM_init)
                  0000cc48    00000038     driverlib.lib : sysctl.obj (.text:SysCtlPeripheralReady)
                  0000cc80    00000038     drivers_tivaware.aem4f : UART.oem4f (.text:UART_init)
                  0000ccb8    00000038     rtsv7M4_T_le_v4SPD16_eabi.lib : trgmsg.c.obj (.text:__TI_writemsg)
                  0000ccf0    00000038                                   : fs_tod_t2.asm.obj (.text)
                  0000cd28    00000038     motor_api.obj (.text:startMotor)
                  0000cd60    00000038     sysbios.aem4f : BIOS.obj (.text:ti_sysbios_family_arm_m3_Hwi_excNoIsr__I)
                  0000cd98    00000038                   : BIOS.obj (.text:ti_sysbios_knl_Task_processVitalTaskFlag__I)
                  0000cdd0    00000038     ti.targets.arm.rtsarm.aem4f : SysMin.oem4f (.text:xdc_runtime_SysMin_putch__E)
                  0000ce08    00000038                                 : System.oem4f (.text:xdc_runtime_System_atexit__E)
                  0000ce40    00000036     grlib.lib : line.obj (.text:GrClipCodeGet)
                  0000ce76    00000036     drivers_tivaware.aem4f : I2CTiva.oem4f (.text:I2CTiva_close)
                  0000ceac    00000036                            : UARTTiva.oem4f (.text:UARTTiva_readCancel)
                  0000cee2    00000002     --HOLE-- [fill = 0]
                  0000cee4    00000034     driverlib.lib : sysctl.obj (.text:SysCtlPeripheralEnable)
                  0000cf18    00000034                   : eeprom.obj (.text:_EEPROMSectorMaskClear)
                  0000cf4c    00000034     rtsv7M4_T_le_v4SPD16_eabi.lib : trgmsg.c.obj (.text:__TI_readmsg)
                  0000cf80    00000034     motor_api.obj (.text:motorUpdateFunc)
                  0000cfb4    00000004     --HOLE-- [fill = 0]
                  0000cfb8    00000034     sysbios.aem4f : BIOS.obj (.text:ti_sysbios_family_arm_m3_Hwi_Instance_finalize__E)
                  0000cfec    00000004     --HOLE-- [fill = 0]
                  0000cff0    00000034                   : BIOS.obj (.text:ti_sysbios_family_arm_m3_Hwi_excNmi__I)
                  0000d024    00000034     empty_min_pem4f.oem4f (.text:ti_sysbios_knl_Clock_construct)
                  0000d058    00000034     ti.targets.arm.rtsarm.aem4f : Core-label.oem4f (.text:xdc_runtime_Core_assignLabel__I)
                  0000d08c    00000033                                 : Text.oem4f (.text:xdc_runtime_Text_printVisFxn__I)
                  0000d0bf    00000001     --HOLE-- [fill = 0]
                  0000d0c0    00000032     sysbios.aem4f : BIOS.obj (.text:ti_sysbios_hal_Hwi_initStack)
                  0000d0f2    00000002     --HOLE-- [fill = 0]
                  0000d0f4    00000030     drivers_tivaware.aem4f : GPIOTiva.oem4f (.text:GPIO_enableInt)
                  0000d124    00000030                            : GPIOTiva.oem4f (.text:GPIO_read)
                  0000d154    00000030                            : I2C.oem4f (.text:I2C_open)
                  0000d184    00000030                            : PWMTiva.oem4f (.text:PWMTiva_init)
                  0000d1b4    00000030                            : PWM.oem4f (.text:PWM_open)
                  0000d1e4    00000030                            : UART.oem4f (.text:UART_open)
                  0000d214    00000030     rtsv7M4_T_le_v4SPD16_eabi.lib : snprintf.c.obj (.text:_outs)
                  0000d244    00000030     user_interface.obj (.text:drawAccelerationGraph)
                  0000d274    00000030     user_interface.obj (.text:drawAmbientTemperatureGraph)
                  0000d2a4    00000030     user_interface.obj (.text:drawMotorTemperatureGraph)
                  0000d2d4    00000030     motor_api.obj (.text:rotationCallbackFxn)
                  0000d304    00000030     sensor_api.obj (.text:setThresholdAccel)
                  0000d334    00000030     sensor_api.obj (.text:setThresholdCurrent)
                  0000d364    00000030     empty_min_pem4f.oem4f (.text:ti_sysbios_BIOS_atExitFunc__I)
                  0000d394    00000004     --HOLE-- [fill = 0]
                  0000d398    00000030     sysbios.aem4f : BIOS.obj (.text:ti_sysbios_family_arm_lm4_Timer_stop__E)
                  0000d3c8    00000030                   : BIOS.obj (.text:ti_sysbios_family_arm_m3_TaskSupport_start__E)
                  0000d3f8    00000030     empty_min_pem4f.oem4f (.text:ti_sysbios_gates_GateHwi_Object__create__S)
                  0000d428    00000030     empty_min_pem4f.oem4f (.text:ti_sysbios_gates_GateMutex_Object__create__S)
                  0000d458    00000030     sysbios.aem4f : BIOS.obj (.text:ti_sysbios_gates_GateMutex_enter__E)
                  0000d488    00000030     empty_min_pem4f.oem4f (.text:ti_sysbios_heaps_HeapMem_Object__create__S)
                  0000d4b8    00000030     empty_min_pem4f.oem4f (.text:ti_sysbios_knl_Semaphore_construct)
                  0000d4e8    00000030     sysbios.aem4f : BIOS.obj (.text:ti_sysbios_knl_Semaphore_pendTimeout__I)
                  0000d518    00000030                   : BIOS.obj (.text:ti_sysbios_knl_Task_unblockI__E)
                  0000d548    00000030     ti.targets.arm.rtsarm.aem4f : SysMin.oem4f (.text:xdc_runtime_SysMin_abort__E)
                  0000d578    00000030                                 : System.oem4f (.text:xdc_runtime_System_processAtExit__E)
                  0000d5a8    0000002f     empty_min.obj (.text:sensorsFxn)
                  0000d5d7    00000001     --HOLE-- [fill = 0]
                  0000d5d8    0000002e     driverlib.lib : adc.obj (.text:ADCIntStatus)
                  0000d606    0000002e     grlib.lib : string.obj (.text:GrStringNextCharGet)
                  0000d634    0000002e     opt3001.obj (.text:OPT3001Enable)
                  0000d662    0000002e     rtsv7M4_T_le_v4SPD16_eabi.lib : i_tofd_t2.asm.obj (.text)
                  0000d690    0000002c     user_interface.obj (.text:DrawGraphMenuScreen)
                  0000d6bc    0000002c     user_interface.obj (.text:DrawSetMenuScreen)
                  0000d6e8    0000002c     grlib.lib : string.obj (.text:GrFontBaselineGet)
                  0000d714    0000002c               : string.obj (.text:GrFontHeightGet)
                  0000d740    0000002c     user_interface.obj (.text:drawPowerGraph)
                  0000d76c    0000002c     user_interface.obj (.text:returnFromGraph)
                  0000d798    0000002c     empty_min_pem4f.oem4f (.text:ti_sysbios_knl_Clock_doTick__I)
                  0000d7c4    0000002c     empty_min_pem4f.oem4f (.text:ti_sysbios_knl_Queue_construct)
                  0000d7f0    0000002c     sysbios.aem4f : BIOS.obj (.text:ti_sysbios_knl_Task_restore__E)
                  0000d81c    0000002c     ti.targets.arm.rtsarm.aem4f : Text.oem4f (.text:xdc_runtime_Text_cordText__E)
                  0000d848    0000002a     driverlib.lib : gpio.obj (.text:GPIODirModeSet)
                  0000d872    0000002a     grlib.lib : widget.obj (.text:WidgetIsInTree)
                  0000d89c    0000002a     ti.targets.arm.rtsarm.aem4f : System.oem4f (.text:xdc_runtime_System_putchar__I)
                  0000d8c6    00000028     Kentec320x240x16_ssd2119_spi.obj (.text:Kentec320x240x16_SSD2119ColorTranslate)
                  0000d8ee    00000028     grlib.lib : pushbutton.obj (.text:RectangularButtonMsgProc)
                  0000d916    00000002     --HOLE-- [fill = 0]
                  0000d918    00000028     user_interface.obj (.text:drawLightGraph)
                  0000d940    00000028     user_interface.obj (.text:drawSpeedGraph)
                  0000d968    00000028     motor_api.obj (.text:getSpeed)
                  0000d990    00000028     motor_api.obj (.text:setDesiredSpeed)
                  0000d9b8    00000028     sysbios.aem4f : BIOS.obj (.text:ti_sysbios_hal_Hwi_Instance_init__E)
                  0000d9e0    00000028                   : BIOS.obj (.text:ti_sysbios_knl_Swi_Module_startup__E)
                  0000da08    00000026     grlib.lib : string.obj (.text:GrFontInfoGet)
                  0000da2e    00000026     sysbios.aem4f : m3_Hwi_asm.obj (.text:ti_sysbios_family_arm_m3_Hwi_pendSV__I)
                  0000da54    00000026     ti.targets.arm.rtsarm.aem4f : System.oem4f (.text:xdc_runtime_System_avprintf__E)
                  0000da7a    00000024     grlib.lib : widget.obj (.text:WidgetAdd)
                  0000da9e    00000002     --HOLE-- [fill = 0]
                  0000daa0    00000024     empty_min_pem4f.oem4f (.text:ti_sysbios_BIOS_errorRaiseHook__I)
                  0000dac4    00000024     empty_min_pem4f.oem4f (.text:ti_sysbios_BIOS_registerRTSLock__I)
                  0000dae8    00000024     empty_min_pem4f.oem4f (.text:ti_sysbios_BIOS_removeRTSLock__I)
                  0000db0c    00000024     empty_min_pem4f.oem4f (.text:ti_sysbios_BIOS_startFunc__I)
                  0000db30    00000024     empty_min_pem4f.oem4f (.text:ti_sysbios_gates_GateMutex_Object__delete__S)
                  0000db54    00000004     --HOLE-- [fill = 0]
                  0000db58    00000024     sysbios.aem4f : BIOS.obj (.text:ti_sysbios_knl_Clock_Module_startup__E)
                  0000db7c    00000004     --HOLE-- [fill = 0]
                  0000db80    00000024                   : BIOS.obj (.text:ti_sysbios_knl_Clock_start__E)
                  0000dba4    00000004     --HOLE-- [fill = 0]
                  0000dba8    00000024                   : BIOS.obj (.text:ti_sysbios_knl_Semaphore_Instance_init__E)
                  0000dbcc    00000004     --HOLE-- [fill = 0]
                  0000dbd0    00000024                   : BIOS.obj (.text:ti_sysbios_knl_Task_restoreHwi__E)
                  0000dbf4    00000024     ti.targets.arm.rtsarm.aem4f : System.oem4f (.text:xdc_runtime_System_vprintf__E)
                  0000dc18    00000022     grlib.lib : string.obj (.text:GrFontGlyphDataGet)
                  0000dc3a    00000022     driverlib.lib : pwm.obj (.text:PWMGenConfigure)
                  0000dc5c    00000022     drivers_tivaware.aem4f : PWMTiva.oem4f (.text:PWMTiva_getPeriodCounts)
                  0000dc7e    00000002     --HOLE-- [fill = 0]
                  0000dc80    00000022     sysbios.aem4f : BIOS.obj (.text:ti_sysbios_family_arm_lm4_Timer_write__I)
                  0000dca2    00000022     empty_min_pem4f.oem4f (.text:xdc_runtime_SysMin_output__I)
                  0000dcc4    00000020     empty_min.obj (.text:ClockFxn)
                  0000dce4    00000020     driverlib.lib : uart.obj (.text:UARTDisable)
                  0000dd04    00000020     Boot.aem4f : Boot_sysctl.oem4f (.text:_SysCtlMemTimingGet)
                  0000dd24    00000020     driverlib.lib : sysctl.obj (.text:_SysCtlMemTimingGet)
                  0000dd44    00000020     motor_api.obj (.text:eStopMotor)
                  0000dd64    00000020     user_interface.obj (.text:ledDayNight)
                  0000dd84    00000020     rtsv7M4_T_le_v4SPD16_eabi.lib : u_tofd_t2.asm.obj (.text)
                  0000dda4    00000020     empty_min_pem4f.oem4f (.text:ti_sysbios_BIOS_rtsLock__I)
                  0000ddc4    00000020     empty_min_pem4f.oem4f (.text:ti_sysbios_family_arm_m3_Hwi_Object__delete__S)
                  0000dde4    00000020     sysbios.aem4f : m3_Hwi_asm.obj (.text:ti_sysbios_family_arm_m3_Hwi_excHandlerAsm__I)
                  0000de04    00000004     --HOLE-- [fill = 0]
                  0000de08    00000020                   : BIOS.obj (.text:ti_sysbios_family_arm_m3_Hwi_excHandler__I)
                  0000de28    00000020     empty_min_pem4f.oem4f (.text:ti_sysbios_gates_GateHwi_Object__delete__S)
                  0000de48    00000020     empty_min_pem4f.oem4f (.text:ti_sysbios_heaps_HeapMem_Object__delete__S)
                  0000de68    00000020     empty_min_pem4f.oem4f (.text:ti_sysbios_knl_Clock_Object__destruct__S)
                  0000de88    00000020     sysbios.aem4f : BIOS.obj (.text:ti_sysbios_knl_Idle_run__E)
                  0000dea8    00000020     empty_min_pem4f.oem4f (.text:ti_sysbios_knl_Semaphore_Object__destruct__S)
                  0000dec8    00000020     ti.targets.arm.rtsarm.aem4f : Registry.oem4f (.text:xdc_runtime_Registry_findById__E)
                  0000dee8    00000020                                 : SysMin.oem4f (.text:xdc_runtime_SysMin_Module_startup__E)
                  0000df08    0000001e     driverlib.lib : adc.obj (.text:ADCSequenceDataGet)
                  0000df26    0000001e     grlib.lib : string.obj (.text:GrFontCodepageGet)
                  0000df44    0000001e     driverlib.lib : pwm.obj (.text:PWMPulseWidthSet)
                  0000df62    0000001e     drivers_tivaware.aem4f : PWMTiva.oem4f (.text:PWMTiva_getPeriodMicroSecs)
                  0000df80    0000001e     sysbios.aem4f : m3_Hwi_asm_switch.obj (.text:ti_sysbios_family_xxx_Hwi_switchAndRunFunc)
                  0000df9e    00000002     --HOLE-- [fill = 0]
                  0000dfa0    0000001c     grlib.lib : widget.obj (.text:WidgetPointerMessage)
                  0000dfbc    0000001c     drivers_tivaware.aem4f : GPIOTiva.oem4f (.text:getGpioIntIndex)
                  0000dfd8    0000001c     rtsv7M4_T_le_v4SPD16_eabi.lib : memccpy.c.obj (.text:memccpy)
                  0000dff4    0000001c     empty_min_pem4f.oem4f (.text:ti_sysbios_family_arm_m3_Hwi_Object__destruct__S)
                  0000e010    0000001c     sysbios.aem4f : BIOS.obj (.text:ti_sysbios_gates_GateMutex_Instance_init__E)
                  0000e02c    0000001c     empty_min_pem4f.oem4f (.text:ti_sysbios_hal_Hwi_HwiProxy_create)
                  0000e048    0000001c     sysbios.aem4f : BIOS.obj (.text:ti_sysbios_knl_Clock_Instance_finalize__E)
                  0000e064    0000001c     empty_min_pem4f.oem4f (.text:ti_sysbios_knl_Queue_Object__destruct__S)
                  0000e080    0000001c     sysbios.aem4f : BIOS.obj (.text:ti_sysbios_knl_Queue_put__E)
                  0000e09c    00000004     --HOLE-- [fill = 0]
                  0000e0a0    0000001c                   : BIOS.obj (.text:ti_sysbios_knl_Task_enter__I)
                  0000e0bc    0000001c     ti.targets.arm.rtsarm.aem4f : Error.oem4f (.text:xdc_runtime_Error_raiseX__E)
                  0000e0d8    0000001c                                 : Memory.oem4f (.text:xdc_runtime_Memory_valloc__E)
                  0000e0f4    0000001c                                 : SysMin.oem4f (.text:xdc_runtime_SysMin_exit__E)
                  0000e110    0000001c                                 : System.oem4f (.text:xdc_runtime_System_abort__E)
                  0000e12c    0000001a     rtsv7M4_T_le_v4SPD16_eabi.lib : s_copysign.c.obj (.text:copysign)
                  0000e146    0000001a     empty_min_pem4f.oem4f (.text:ti_sysbios_family_arm_m3_Hwi_Handle__label__S)
                  0000e160    0000001a     empty_min_pem4f.oem4f (.text:ti_sysbios_gates_GateHwi_Handle__label__S)
                  0000e17a    0000001a     empty_min_pem4f.oem4f (.text:ti_sysbios_gates_GateMutex_Handle__label__S)
                  0000e194    0000001a     empty_min_pem4f.oem4f (.text:ti_sysbios_heaps_HeapMem_Handle__label__S)
                  0000e1ae    0000001a     empty_min_pem4f.oem4f (.text:ti_sysbios_knl_Swi_Handle__label__S)
                  0000e1c8    0000001a     empty_min_pem4f.oem4f (.text:ti_sysbios_knl_Task_Handle__label__S)
                  0000e1e2    0000001a     empty_min_pem4f.oem4f (.text:xdc_runtime_System_aprintf__E)
                  0000e1fc    0000001a     empty_min_pem4f.oem4f (.text:xdc_runtime_System_printf__E)
                  0000e216    00000018     driverlib.lib : adc.obj (.text:ADCProcessorTrigger)
                  0000e22e    00000018                   : gpio.obj (.text:GPIOPinTypeGPIOOutput)
                  0000e246    00000018     tmp107.obj (.text:TMP107Transmit)
                  0000e25e    00000018     driverlib.lib : timer.obj (.text:TimerControlLevel)
                  0000e276    00000002     --HOLE-- [fill = 0]
                  0000e278    00000018                   : timer.obj (.text:TimerDisable)
                  0000e290    00000018     drivers_tivaware.aem4f : UART.oem4f (.text:UART_Params_init)
                  0000e2a8    00000018     rtsv7M4_T_le_v4SPD16_eabi.lib : args_main.c.obj (.text:_args_main)
                  0000e2c0    00000018                                   : snprintf.c.obj (.text:_outc)
                  0000e2d8    00000018                                   : sprintf.c.obj (.text:_outs)
                  0000e2f0    00000018     sensor_api.obj (.text:setThresholdTemp)
                  0000e308    00000018     motor_api.obj (.text:stopMotor_api)
                  0000e320    00000018     empty_min_pem4f.oem4f (.text:ti_sysbios_BIOS_rtsUnlock__I)
                  0000e338    00000018     empty_min_pem4f.oem4f (.text:ti_sysbios_family_arm_lm4_Timer_Module__startupDone__F)
                  0000e350    00000018     empty_min_pem4f.oem4f (.text:ti_sysbios_family_arm_m3_Hwi_Module__startupDone__F)
                  0000e368    00000018     sysbios.aem4f : m3_TaskSupport_asm.obj (.text:ti_sysbios_family_arm_m3_TaskSupport_swap__E)
                  0000e380    00000018                   : BIOS.obj (.text:ti_sysbios_gates_GateMutex_leave__E)
                  0000e398    00000018                   : BIOS.obj (.text:ti_sysbios_knl_Task_sleepTimeout__I)
                  0000e3b0    00000018     ti.targets.arm.rtsarm.aem4f : Error.oem4f (.text:xdc_runtime_Error_check__E)
                  0000e3c8    00000018                                 : System.oem4f (.text:xdc_runtime_System_exit__E)
                  0000e3e0    00000018                                 : Text.oem4f (.text:xdc_runtime_Text_ropeText__E)
                  0000e3f8    00000016     grlib.lib : string.obj (.text:GrStringDraw)
                  0000e40e    00000016     driverlib.lib : i2c.obj (.text:I2CMasterErr)
                  0000e424    00000016     rtsv7M4_T_le_v4SPD16_eabi.lib : strchr.c.obj (.text:strchr)
                  0000e43a    00000016     empty_min_pem4f.oem4f (.text:ti_sysbios_BIOS_exitFunc__I)
                  0000e450    00000016     empty_min.obj (.text:ti_sysbios_hal_Hwi_Params_init)
                  0000e466    00000016     empty_min.obj (.text:ti_sysbios_knl_Clock_Params_init)
                  0000e47c    00000016     sensor_api.obj (.text:ti_sysbios_knl_Clock_Params_init)
                  0000e492    00000016     sensor_api.obj (.text:ti_sysbios_knl_Semaphore_Params_init)
                  0000e4a8    00000016     empty_min.obj (.text:ti_sysbios_knl_Task_Params_init)
                  0000e4be    00000016     sensor_api.obj (.text:ti_sysbios_knl_Task_Params_init)
                  0000e4d4    00000014     grlib.lib : canvas.obj (.text:CanvasMsgProc)
                  0000e4e8    00000014     Kentec320x240x16_ssd2119_spi.obj (.text:LED_OFF)
                  0000e4fc    00000014     Kentec320x240x16_ssd2119_spi.obj (.text:LED_ON)
                  0000e510    00000014     driverlib.lib : pwm.obj (.text:PWMClockSet)
                  0000e524    00000014                   : sysctl.obj (.text:SysCtlPWMClockSet)
                  0000e538    00000014     touch.obj (.text:TouchScreenCallbackSet)
                  0000e54c    00000014     driverlib.lib : uart.obj (.text:UARTEnable)
                  0000e560    00000014     grlib.lib : widget.obj (.text:WidgetMutexGet)
                  0000e574    00000014     user_interface.obj (.text:initLEDS)
                  0000e588    00000014     empty_min.obj (.text:shouldDrawDataClock)
                  0000e59c    00000014     rtsv7M4_T_le_v4SPD16_eabi.lib : strcpy.c.obj (.text:strcpy)
                  0000e5b0    00000014                                   : strlen.c.obj (.text:strlen)
                  0000e5c4    00000014     empty_min_pem4f.oem4f (.text:ti_sysbios_family_arm_m3_Hwi_Object__get__S)
                  0000e5d8    00000014     sysbios.aem4f : BIOS.obj (.text:ti_sysbios_family_arm_m3_Hwi_switchFromBootStack__E)
                  0000e5ec    00000014     empty_min_pem4f.oem4f (.text:ti_sysbios_heaps_HeapMem_Object__get__S)
                  0000e600    00000014     empty_min_pem4f.oem4f (.text:ti_sysbios_knl_Swi_Object__get__S)
                  0000e614    00000014     user_interface.obj (.text:writeToEEPROM)
                  0000e628    00000012     driverlib.lib : gpio.obj (.text:GPIOPinTypeADC)
                  0000e63a    00000012                   : gpio.obj (.text:GPIOPinTypeEthernetLED)
                  0000e64c    00000012                   : gpio.obj (.text:GPIOPinTypeI2C)
                  0000e65e    00000012                   : gpio.obj (.text:GPIOPinTypeI2CSCL)
                  0000e670    00000012                   : gpio.obj (.text:GPIOPinTypePWM)
                  0000e682    00000012                   : gpio.obj (.text:GPIOPinTypeSSI)
                  0000e694    00000012                   : gpio.obj (.text:GPIOPinTypeTimer)
                  0000e6a6    00000012                   : gpio.obj (.text:GPIOPinTypeUART)
                  0000e6b8    00000012                   : pwm.obj (.text:PWMGenPeriodGet)
                  0000e6ca    00000012                   : pwm.obj (.text:PWMOutputInvert)
                  0000e6dc    00000012                   : pwm.obj (.text:PWMOutputState)
                  0000e6ee    00000012     drivers_tivaware.aem4f : RingBuf.oem4f (.text:RingBuf_construct)
                  0000e700    00000012     driverlib.lib : ssi.obj (.text:SSIDataGetNonBlocking)
                  0000e712    00000012                   : timer.obj (.text:TimerLoadSet)
                  0000e724    00000012                   : timer.obj (.text:TimerMatchSet)
                  0000e736    00000012                   : timer.obj (.text:TimerPrescaleMatchSet)
                  0000e748    00000012                   : timer.obj (.text:TimerPrescaleSet)
                  0000e75a    00000006                   : i2c.obj (.text:I2CMasterIntEnable)
                  0000e760    00000012     sysbios.aem4f : BIOS.obj (.text:ti_sysbios_hal_Hwi_Module_startup__E)
                  0000e772    00000012     rtsv7M4_T_le_v4SPD16_eabi.lib : wcslen.c.obj (.text:wcslen)
                  0000e784    00000012     empty_min_pem4f.oem4f (.text:xdc_runtime_Startup_exec__I)
                  0000e796    00000002     --HOLE-- [fill = 0]
                  0000e798    00000010     empty_min_pem4f.oem4f (.text:.bootCodeSection:ti_catalog_arm_cortexm4_tiva_ce_Boot_init__I)
                  0000e7a8    00000010     driverlib.lib : adc.obj (.text:ADCIntEnable)
                  0000e7b8    00000010     drivers_tivaware.aem4f : I2C.oem4f (.text:I2C_Params_init)
                  0000e7c8    00000010     driverlib.lib : interrupt.obj (.text:IntMasterEnable)
                  0000e7d8    00000010                   : pwm.obj (.text:PWMGenPeriodSet)
                  0000e7e8    00000010     drivers_tivaware.aem4f : PWM.oem4f (.text:PWM_Params_init)
                  0000e7f8    00000010     driverlib.lib : eeprom.obj (.text:_EEPROMWaitForDone)
                  0000e808    00000010     motor_api.obj (.text:getSpeedFloat)
                  0000e818    00000010     drivers_tivaware.aem4f : UARTTiva.oem4f (.text:readBlockingTimeout)
                  0000e828    00000010     sensor_api.obj (.text:swiAcceleration)
                  0000e838    00000010     sensor_api.obj (.text:swiLight)
                  0000e848    00000010     sensor_api.obj (.text:swiTemp)
                  0000e858    00000010     sysbios.aem4f : BIOS.obj (.text:ti_sysbios_BIOS_getCpuFreq__E)
                  0000e868    00000010                   : BIOS.obj (.text:ti_sysbios_BIOS_setThreadType__E)
                  0000e878    00000010                   : BIOS.obj (.text:ti_sysbios_BIOS_start__E)
                  0000e888    00000010                   : m3_TaskSupport_asm.obj (.text:ti_sysbios_family_arm_m3_TaskSupport_glue)
                  0000e898    00000010                   : BIOS.obj (.text:ti_sysbios_gates_GateMutex_Instance_finalize__E)
                  0000e8a8    00000010     empty_min_pem4f.oem4f (.text:ti_sysbios_hal_Hwi_HwiProxy_Object__create__S)
                  0000e8b8    00000010     sysbios.aem4f : BIOS.obj (.text:ti_sysbios_knl_Semaphore_Instance_finalize__E)
                  0000e8c8    00000010                   : BIOS.obj (.text:ti_sysbios_knl_Swi_disable__E)
                  0000e8d8    00000010                   : BIOS.obj (.text:ti_sysbios_knl_Task_disable__E)
                  0000e8e8    00000010     ti.targets.arm.rtsarm.aem4f : Gate.oem4f (.text:xdc_runtime_Gate_leaveSystem__E)
                  0000e8f8    00000010                                 : Memory.oem4f (.text:xdc_runtime_Memory_free__E)
                  0000e908    00000010                                 : SysMin.oem4f (.text:xdc_runtime_SysMin_ready__E)
                  0000e918    00000010                                 : System.oem4f (.text:xdc_runtime_System_vsnprintf__E)
                  0000e928    00000010     empty_min_pem4f.oem4f (.text:xdc_runtime_Text_visitRope__I)
                  0000e938    0000000e     driverlib.lib : adc.obj (.text:ADCSequenceEnable)
                  0000e946    0000000e                   : gpio.obj (.text:GPIOIntStatus)
                  0000e954    0000000e     grlib.lib : image.obj (.text:GrImageDraw)
                  0000e962    0000000e     driverlib.lib : timer.obj (.text:TimerEnable)
                  0000e970    0000000e                   : uart.obj (.text:UARTCharGetNonBlocking)
                  0000e97e    0000000e                   : uart.obj (.text:UARTCharPutNonBlocking)
                  0000e98c    0000000e     rtsv7M4_T_le_v4SPD16_eabi.lib : time.c.obj (.text:__time32)
                  0000e99a    0000000e     sensor_api.obj (.text:callbackTriggerAccelEStop)
                  0000e9a8    0000000e     rtsv7M4_T_le_v4SPD16_eabi.lib : copy_decompress_none.c.obj (.text:decompress:none:__TI_decompress_none)
                  0000e9b6    00000002     --HOLE-- [fill = 0]
                  0000e9b8    0000000e     sysbios.aem4f : BIOS.obj (.text:ti_sysbios_knl_Queue_empty__E)
                  0000e9c6    0000000e     empty_min_pem4f.oem4f (.text:ti_sysbios_knl_Task_Object__get__S)
                  0000e9d4    0000000c     driverlib.lib : cpu.obj (.text:CPUcpsie)
                  0000e9e0    0000000c                   : gpio.obj (.text:GPIOIntEnable)
                  0000e9ec    0000000c                   : pwm.obj (.text:PWMGenDisable)
                  0000e9f8    0000000c                   : pwm.obj (.text:PWMGenEnable)
                  0000ea04    0000000c     drivers_tivaware.aem4f : RingBuf.oem4f (.text:RingBuf_peek)
                  0000ea10    0000000c     driverlib.lib : uart.obj (.text:UARTFlowControlSet)
                  0000ea1c    0000000c     drivers_tivaware.aem4f : UARTTiva.oem4f (.text:UARTTiva_init)
                  0000ea28    0000000c     rtsv7M4_T_le_v4SPD16_eabi.lib : _lock.c.obj (.text:_register_lock)
                  0000ea34    0000000c                                   : _lock.c.obj (.text:_register_unlock)
                  0000ea40    0000000c                                   : copy_zero_init.c.obj (.text:decompress:ZI:__TI_zero_init)
                  0000ea4c    00000004     --HOLE-- [fill = 0]
                  0000ea50    0000000c     sysbios.aem4f : BIOS.obj (.text:ti_sysbios_family_arm_lm4_Timer_getAvailMask__E)
                  0000ea5c    00000004     --HOLE-- [fill = 0]
                  0000ea60    0000000c                   : BIOS.obj (.text:ti_sysbios_family_arm_lm4_Timer_getMaxTicks__E)
                  0000ea6c    0000000c     empty_min_pem4f.oem4f (.text:ti_sysbios_family_arm_m3_Hwi_Params__init__S)
                  0000ea78    0000000c     sysbios.aem4f : BIOS.obj (.text:ti_sysbios_family_arm_m3_Hwi_disableFxn__E)
                  0000ea84    00000004     --HOLE-- [fill = 0]
                  0000ea88    0000000c                   : BIOS.obj (.text:ti_sysbios_family_arm_m3_TaskSupport_getStackAlignment__E)
                  0000ea94    00000004     --HOLE-- [fill = 0]
                  0000ea98    0000000c                   : BIOS.obj (.text:ti_sysbios_gates_GateHwi_enter__E)
                  0000eaa4    0000000c     empty_min_pem4f.oem4f (.text:ti_sysbios_hal_Hwi_Params__init__S)
                  0000eab0    0000000c     empty_min_pem4f.oem4f (.text:ti_sysbios_knl_Clock_Params__init__S)
                  0000eabc    0000000c     empty_min.obj (.text:ti_sysbios_knl_Clock_handle)
                  0000eac8    0000000c     empty_min_pem4f.oem4f (.text:ti_sysbios_knl_Queue_Object__get__S)
                  0000ead4    0000000c     empty_min_pem4f.oem4f (.text:ti_sysbios_knl_Semaphore_Params__init__S)
                  0000eae0    0000000c     sensor_api.obj (.text:ti_sysbios_knl_Semaphore_handle)
                  0000eaec    0000000c     empty_min_pem4f.oem4f (.text:ti_sysbios_knl_Task_Params__init__S)
                  0000eaf8    0000000c     ti.targets.arm.rtsarm.aem4f : Error.oem4f (.text:xdc_runtime_Error_init__E)
                  0000eb04    0000000c                                 : Gate.oem4f (.text:xdc_runtime_Gate_enterSystem__E)
                  0000eb10    0000000c                                 : Memory.oem4f (.text:xdc_runtime_Memory_calloc__E)
                  0000eb1c    0000000c                                 : Memory.oem4f (.text:xdc_runtime_Memory_getMaxDefaultTypeAlign__E)
                  0000eb28    0000000a     driverlib.lib : adc.obj (.text:ADCIntClear)
                  0000eb32    0000000a                   : i2c.obj (.text:I2CMasterDisable)
                  0000eb3c    0000000a                   : i2c.obj (.text:I2CMasterEnable)
                  0000eb46    0000000a     drivers_tivaware.aem4f : I2CTiva.oem4f (.text:I2CTiva_init)
                  0000eb50    0000000a                            : I2C.oem4f (.text:I2C_transfer)
                  0000eb5a    0000000a     Kentec320x240x16_ssd2119_spi.obj (.text:Kentec320x240x16_SSD2119Flush)
                  0000eb64    0000000a     drivers_tivaware.aem4f : PWMTimerTiva.oem4f (.text:PWMTimerTiva_getPeriodCounts)
                  0000eb6e    0000000a                            : PWM.oem4f (.text:PWM_setDuty)
                  0000eb78    0000000a     driverlib.lib : ssi.obj (.text:SSIDataPut)
                  0000eb82    0000000a                   : ssi.obj (.text:SSIEnable)
                  0000eb8c    0000000a                   : uart.obj (.text:UARTCharGet)
                  0000eb96    0000000a                   : uart.obj (.text:UARTCharPut)
                  0000eba0    0000000a                   : uart.obj (.text:UARTIntDisable)
                  0000ebaa    0000000a                   : uart.obj (.text:UARTIntStatus)
                  0000ebb4    0000000a     drivers_tivaware.aem4f : UART.oem4f (.text:UART_read)
                  0000ebbe    0000000a                            : UART.oem4f (.text:UART_write)
                  0000ebc8    0000000a     user_interface.obj (.text:UserInterfaceDraw)
                  0000ebd2    0000000a     rtsv7M4_T_le_v4SPD16_eabi.lib : sprintf.c.obj (.text:_outc)
                  0000ebdc    00000004     --HOLE-- [fill = 0]
                  0000ebe0    0000000a     sysbios.aem4f : BIOS.obj (.text:ti_sysbios_hal_Hwi_Instance_finalize__E)
                  0000ebea    0000000a     empty_min_pem4f.oem4f (.text:xdc_runtime_IHeap_alloc)
                  0000ebf4    0000000a     empty_min_pem4f.oem4f (.text:xdc_runtime_IHeap_free)
                  0000ebfe    00000008     EK_TM4C1294XL.obj (.text:EK_TM4C1294XL_initGPIO)
                  0000ec06    00000008     grlib.lib : charmap.obj (.text:GrMapISO8859_1_Unicode)
                  0000ec0e    00000008     driverlib.lib : i2c.obj (.text:I2CMasterIntClear)
                  0000ec16    00000008                   : i2c.obj (.text:I2CMasterSlaveAddrSet)
                  0000ec1e    00000008     drivers_tivaware.aem4f : I2CTiva.oem4f (.text:I2CTiva_blockingCallback)
                  0000ec26    00000008                            : PWMTimerTiva.oem4f (.text:PWMTimerTiva_init)
                  0000ec2e    00000008     driverlib.lib : ssi.obj (.text:SSIBusy)
                  0000ec36    00000008                   : uart.obj (.text:UARTIntEnable)
                  0000ec3e    00000008                   : uart.obj (.text:UARTRxErrorGet)
                  0000ec46    00000002     --HOLE-- [fill = 0]
                  0000ec48    00000008     rtsv7M4_T_le_v4SPD16_eabi.lib : errno.c.obj (.text:__aeabi_errno_addr)
                  0000ec50    00000008     drivers_tivaware.aem4f : UARTTiva.oem4f (.text:readSemCallback)
                  0000ec58    00000008     sysbios.aem4f : BIOS.obj (.text:ti_sysbios_family_arm_lm4_Timer_masterDisable__I)
                  0000ec60    00000008                   : BIOS.obj (.text:ti_sysbios_family_arm_m3_Hwi_doSwiRestore__I)
                  0000ec68    00000008                   : BIOS.obj (.text:ti_sysbios_family_arm_m3_Hwi_startup__E)
                  0000ec70    00000008     drivers_tivaware.aem4f : UARTTiva.oem4f (.text:writeSemCallback)
                  0000ec78    00000006                            : I2CTiva.oem4f (.text:I2CTiva_control)
                  0000ec7e    00000006                            : PWMTimerTiva.oem4f (.text:PWMTimerTiva_getPeriodMicroSecs)
                  0000ec84    00000006     driverlib.lib : sysctl.obj (.text:SysCtlDelay)
                  0000ec8a    00000006                   : uart.obj (.text:UARTFIFOLevelSet)
                  0000ec90    00000006                   : uart.obj (.text:UARTRxErrorClear)
                  0000ec96    00000006     grlib.lib : widget.obj (.text:WidgetMutexPut)
                  0000ec9c    00000004     --HOLE-- [fill = 0]
                  0000eca0    00000006     sysbios.aem4f : BIOS.obj (.text:ti_sysbios_family_arm_m3_Hwi_doTaskRestore__I)
                  0000eca6    00000002     --HOLE-- [fill = 0]
                  0000eca8    00000006                   : BIOS.obj (.text:ti_sysbios_family_arm_m3_Hwi_restoreFxn__E)
                  0000ecae    00000002     --HOLE-- [fill = 0]
                  0000ecb0    00000006                   : BIOS.obj (.text:ti_sysbios_gates_GateHwi_leave__E)
                  0000ecb6    00000002     --HOLE-- [fill = 0]
                  0000ecb8    00000006                   : BIOS.obj (.text:ti_sysbios_heaps_HeapMem_isBlocking__E)
                  0000ecbe    00000002     --HOLE-- [fill = 0]
                  0000ecc0    00000006                   : BIOS.obj (.text:ti_sysbios_knl_Clock_stop__E)
                  0000ecc6    00000002     --HOLE-- [fill = 0]
                  0000ecc8    00000006                   : BIOS.obj (.text:ti_sysbios_knl_Queue_Instance_init__E)
                  0000ecce    00000002     --HOLE-- [fill = 0]
                  0000ecd0    00000006                   : BIOS.obj (.text:ti_sysbios_knl_Swi_startup__E)
                  0000ecd6    00000006     ti.targets.arm.rtsarm.aem4f : System.oem4f (.text:xdc_runtime_System_Module_startup__E)
                  0000ecdc    00000004     --HOLE-- [fill = 0]
                  0000ece0    00000004     sysbios.aem4f : BIOS.obj (.text:ti_sysbios_gates_GateHwi_query__E)
                  0000ece4    00000004     --HOLE-- [fill = 0]
                  0000ece8    00000004                   : BIOS.obj (.text:ti_sysbios_gates_GateMutex_query__E)
                  0000ecec    00000004     --HOLE-- [fill = 0]
                  0000ecf0    00000004                   : BIOS.obj (.text:ti_sysbios_knl_Task_startup__E)
                  0000ecf4    00000004     --HOLE-- [fill = 0]
                  0000ecf8    00000002                   : BIOS.obj (.text:ti_sysbios_gates_GateHwi_Instance_init__E)
                  0000ecfa    00000006     --HOLE-- [fill = 0]
                  0000ed00    00000002                   : BIOS.obj (.text:ti_sysbios_knl_Clock_logTick__E)

.const     0    0000ed08    00004152     
                  0000ed08    00001852     empty_min_pem4f.oem4f (.const:xdc_runtime_Text_charTab__A)
                  0001055a    00000002     empty_min_pem4f.oem4f (.const:ti_catalog_arm_cortexm4_tiva_ce_Boot_Module__id__C)
                  0001055c    00000004     empty_min_pem4f.oem4f (.const:ti_catalog_arm_cortexm4_tiva_ce_Boot_A_mustNotUseEnhancedClockMode__C)
                  00010560    00001000     rtsv7M4_T_le_v4SPD16_eabi.lib : s_exp2.c.obj (.const:tbl)
                  00011560    00000782     grlib.lib : fontcmss18b.obj (.const:.string:g_pui8Cmss18bData)
                  00011ce2    00000002     empty_min_pem4f.oem4f (.const:ti_sysbios_family_arm_m3_Hwi_Module__id__C)
                  00011ce4    000001b0     driverlib.lib : sysctl.obj (.const:g_pppui32XTALtoVCO)
                  00011e94    00000120     Boot.aem4f : Boot_sysctl.oem4f (.const:g_pppui32XTALtoVCO)
                  00011fb4    00000101     rtsv7M4_T_le_v4SPD16_eabi.lib : ctype.c.obj (.const:.string:_ctypes_)
                  000120b5    00000001     empty_min_pem4f.oem4f (.const:xdc_runtime_Error_policy__C)
                  000120b6    00000002     empty_min_pem4f.oem4f (.const:ti_sysbios_heaps_HeapMem_Module__id__C)
                  000120b8    000000c8     grlib.lib : fontcmss18b.obj (.const:g_sFontCmss18b)
                  00012180    000000c6     user_interface.obj (.const:.string)
                  00012246    000000bc     empty_min_pem4f.oem4f (.const:xdc_runtime_Text_nodeTab__A)
                  00012302    00000002     empty_min_pem4f.oem4f (.const:xdc_runtime_Core_Module__id__C)
                  00012304    00000090     driverlib.lib : gpio.obj (.const:g_pui32GPIOBaseAddrs)
                  00012394    00000070                   : interrupt.obj (.const)
                  00012404    0000006c     Boot.aem4f : Boot_sysctl.oem4f (.const:g_pui32Xtals)
                  00012470    0000006c     driverlib.lib : sysctl.obj (.const:g_pui32Xtals)
                  000124dc    00000060     rtsv7M4_T_le_v4SPD16_eabi.lib : mktime.c.obj (.const:$O1$$)
                  0001253c    00000060     motorlib.lib : motorlib.obj (.const:PWM_config)
                  0001259c    00000054     drivers_tivaware.aem4f : GPIOTiva.oem4f (.const:.string)
                  000125f0    00000054     motorlib.lib : motorlib.obj (.const:motorLibPWMTivaHWAttrs)
                  00012644    0000004c     rtsv7M4_T_le_v4SPD16_eabi.lib : asctime.c.obj (.const:$O1$$)
                  00012690    0000004c                                   : asctime.c.obj (.const:.string)
                  000126dc    0000004c     drivers_tivaware.aem4f : UARTTiva.oem4f (.const)
                  00012728    00000048     empty_min_pem4f.oem4f (.const:.string)
                  00012770    00000048     drivers_tivaware.aem4f : GPIOTiva.oem4f (.const:gpioBaseAddresses)
                  000127b8    0000003c     empty_min_pem4f.oem4f (.const:ti_sysbios_knl_Task_Object__PARAMS__C)
                  000127f4    00000030     Boot.aem4f : Boot_sysctl.oem4f (.const:g_sXTALtoMEMTIM)
                  00012824    00000030     driverlib.lib : sysctl.obj (.const:g_sXTALtoMEMTIM)
                  00012854    00000030     empty_min_pem4f.oem4f (.const:ti_sysbios_family_arm_m3_Hwi_Object__PARAMS__C)
                  00012884    00000030     EK_TM4C1294XL.obj (.const:uartTivaHWAttrs)
                  000128b4    0000002c     empty_min_pem4f.oem4f (.const:ti_sysbios_hal_Hwi_Object__PARAMS__C)
                  000128e0    00000028     drivers_tivaware.aem4f : UARTTiva.oem4f (.const:UARTTiva_fxnTable)
                  00012908    00000028     Kentec320x240x16_ssd2119_spi.obj (.const:g_sKentec320x240x16_SSD2119)
                  00012930    00000028     empty_min_pem4f.oem4f (.const:ti_sysbios_heaps_HeapMem_Module__FXNS__C)
                  00012958    00000024     EK_TM4C1294XL.obj (.const:UART_config)
                  0001297c    00000024     drivers_tivaware.aem4f : UART.oem4f (.const:UART_defaultParams)
                  000129a0    00000024     empty_min_pem4f.oem4f (.const:ti_sysbios_gates_GateHwi_Module__FXNS__C)
                  000129c4    00000024     empty_min_pem4f.oem4f (.const:ti_sysbios_gates_GateMutex_Module__FXNS__C)
                  000129e8    00000024     empty_min_pem4f.oem4f (.const:ti_sysbios_heaps_HeapMem_Object__PARAMS__C)
                  00012a0c    00000024     empty_min_pem4f.oem4f (.const:ti_sysbios_knl_Clock_Object__PARAMS__C)
                  00012a30    00000024     empty_min_pem4f.oem4f (.const:ti_sysbios_knl_Semaphore_Object__PARAMS__C)
                  00012a54    00000020     drivers_tivaware.aem4f : PWMTimerTiva.oem4f (.const)
                  00012a74    00000020                            : PWMTiva.oem4f (.const)
                  00012a94    00000020     empty_min_pem4f.oem4f (.const:ti_sysbios_family_arm_m3_Hwi_Object__DESC__C)
                  00012ab4    00000020     empty_min_pem4f.oem4f (.const:ti_sysbios_gates_GateHwi_Object__DESC__C)
                  00012ad4    00000020     empty_min_pem4f.oem4f (.const:ti_sysbios_gates_GateMutex_Object__DESC__C)
                  00012af4    00000020     empty_min_pem4f.oem4f (.const:ti_sysbios_hal_Hwi_Object__DESC__C)
                  00012b14    00000020     empty_min_pem4f.oem4f (.const:ti_sysbios_heaps_HeapMem_Object__DESC__C)
                  00012b34    00000020     empty_min_pem4f.oem4f (.const:ti_sysbios_knl_Clock_Object__DESC__C)
                  00012b54    00000020     empty_min_pem4f.oem4f (.const:ti_sysbios_knl_Queue_Object__DESC__C)
                  00012b74    00000020     empty_min_pem4f.oem4f (.const:ti_sysbios_knl_Semaphore_Object__DESC__C)
                  00012b94    00000020     empty_min_pem4f.oem4f (.const:ti_sysbios_knl_Task_Object__DESC__C)
                  00012bb4    00000020     empty_min_pem4f.oem4f (.const:xdc_runtime_Startup_sfxnTab__A)
                  00012bd4    0000001c     drivers_tivaware.aem4f : I2CTiva.oem4f (.const)
                  00012bf0    0000001c     touch.obj (.const:g_pi32TouchParameters)
                  00012c0c    00000018     EK_TM4C1294XL.obj (.const:I2C_config)
                  00012c24    00000018     empty_min_pem4f.oem4f (.const:ti_sysbios_gates_GateHwi_Object__PARAMS__C)
                  00012c3c    00000018     empty_min_pem4f.oem4f (.const:ti_sysbios_gates_GateMutex_Object__PARAMS__C)
                  00012c54    00000018     empty_min_pem4f.oem4f (.const:ti_sysbios_knl_Queue_Object__PARAMS__C)
                  00012c6c    00000014     EK_TM4C1294XL.obj (.const:GPIOTiva_config)
                  00012c80    00000014     empty_min_pem4f.oem4f (.const:xdc_runtime_Startup_firstFxns__A)
                  00012c94    00000010     drivers_tivaware.aem4f : I2C.oem4f (.const)
                  00012ca4    00000010     grlib.lib : context.obj (.const)
                  00012cb4    00000010     motorlib.lib : motorlib.obj (.const:motorLibPWMTimerTivaHWAttrs)
                  00012cc4    00000010     empty_min_pem4f.oem4f (.const:xdc_runtime_Startup_sfxnRts__A)
                  00012cd4    0000000c     drivers_tivaware.aem4f : PWM.oem4f (.const)
                  00012ce0    0000000c     EK_TM4C1294XL.obj (.const:i2cTivaHWAttrs)
                  00012cec    00000008     Boot.aem4f : Boot_sysctl.oem4f (.const)
                  00012cf4    00000008     driverlib.lib : sysctl.obj (.const)
                  00012cfc    00000008     empty_min_pem4f.oem4f (.const:ti_sysbios_family_arm_m3_Hwi_excHookFuncs__A)
                  00012d04    00000008     empty_min_pem4f.oem4f (.const:ti_sysbios_knl_Idle_funcList__C)
                  00012d0c    00000008     empty_min_pem4f.oem4f (.const:xdc_runtime_Startup_firstFxns__C)
                  00012d14    00000008     empty_min_pem4f.oem4f (.const:xdc_runtime_Startup_lastFxns__C)
                  00012d1c    00000004     empty_min_pem4f.oem4f (.const:ti_catalog_arm_cortexm4_tiva_ce_Boot_Module__diagsEnabled__C)
                  00012d20    00000004     empty_min_pem4f.oem4f (.const:ti_catalog_arm_cortexm4_tiva_ce_Boot_Module__diagsIncluded__C)
                  00012d24    00000004     empty_min_pem4f.oem4f (.const:ti_catalog_arm_cortexm4_tiva_ce_Boot_Module__diagsMask__C)
                  00012d28    00000004     empty_min_pem4f.oem4f (.const:ti_sysbios_family_arm_lm4_Timer_enableFunc__C)
                  00012d2c    00000004     empty_min_pem4f.oem4f (.const:ti_sysbios_family_arm_lm4_Timer_numTimerDevices__C)
                  00012d30    00000004     empty_min_pem4f.oem4f (.const:ti_sysbios_family_arm_lm4_Timer_startupNeeded__C)
                  00012d34    00000004     empty_min_pem4f.oem4f (.const:ti_sysbios_family_arm_m3_Hwi_E_NMI__C)
                  00012d38    00000004     empty_min_pem4f.oem4f (.const:ti_sysbios_family_arm_m3_Hwi_E_alreadyDefined__C)
                  00012d3c    00000004     empty_min_pem4f.oem4f (.const:ti_sysbios_family_arm_m3_Hwi_E_busFault__C)
                  00012d40    00000004     empty_min_pem4f.oem4f (.const:ti_sysbios_family_arm_m3_Hwi_E_debugMon__C)
                  00012d44    00000004     empty_min_pem4f.oem4f (.const:ti_sysbios_family_arm_m3_Hwi_E_hardFault__C)
                  00012d48    00000004     empty_min_pem4f.oem4f (.const:ti_sysbios_family_arm_m3_Hwi_E_memFault__C)
                  00012d4c    00000004     empty_min_pem4f.oem4f (.const:ti_sysbios_family_arm_m3_Hwi_E_noIsr__C)
                  00012d50    00000004     empty_min_pem4f.oem4f (.const:ti_sysbios_family_arm_m3_Hwi_E_reserved__C)
                  00012d54    00000004     empty_min_pem4f.oem4f (.const:ti_sysbios_family_arm_m3_Hwi_E_svCall__C)
                  00012d58    00000004     empty_min_pem4f.oem4f (.const:ti_sysbios_family_arm_m3_Hwi_E_usageFault__C)
                  00012d5c    00000004     empty_min_pem4f.oem4f (.const:ti_sysbios_family_arm_m3_Hwi_NUM_INTERRUPTS__C)
                  00012d60    00000004     empty_min_pem4f.oem4f (.const:ti_sysbios_family_arm_m3_Hwi_Object__count__C)
                  00012d64    00000004     empty_min_pem4f.oem4f (.const:ti_sysbios_family_arm_m3_Hwi_ccr__C)
                  00012d68    00000004     empty_min_pem4f.oem4f (.const:ti_sysbios_family_arm_m3_Hwi_excHandlerFunc__C)
                  00012d6c    00000004     empty_min_pem4f.oem4f (.const:ti_sysbios_family_arm_m3_Hwi_excHookFuncs__C)
                  00012d70    00000004     empty_min_pem4f.oem4f (.const:ti_sysbios_family_arm_m3_Hwi_nullIsrFunc__C)
                  00012d74    00000004     empty_min_pem4f.oem4f (.const:ti_sysbios_family_arm_m3_Hwi_priGroup__C)
                  00012d78    00000004     empty_min_pem4f.oem4f (.const:ti_sysbios_family_arm_m3_TaskSupport_stackAlignment__C)
                  00012d7c    00000004     empty_min_pem4f.oem4f (.const:ti_sysbios_gates_GateMutex_Instance_State_sem__O)
                  00012d80    00000004     empty_min_pem4f.oem4f (.const:ti_sysbios_heaps_HeapMem_E_memory__C)
                  00012d84    00000004     empty_min_pem4f.oem4f (.const:ti_sysbios_heaps_HeapMem_Module__gateObj__C)
                  00012d88    00000004     empty_min_pem4f.oem4f (.const:ti_sysbios_heaps_HeapMem_Object__count__C)
                  00012d8c    00000004     empty_min_pem4f.oem4f (.const:ti_sysbios_heaps_HeapMem_reqAlign__C)
                  00012d90    00000004     empty_min_pem4f.oem4f (.const:ti_sysbios_knl_Clock_Module_State_clockQ__O)
                  00012d94    00000004     empty_min_pem4f.oem4f (.const:ti_sysbios_knl_Idle_funcList__A)
                  00012d98    00000004     empty_min_pem4f.oem4f (.const:ti_sysbios_knl_Semaphore_Instance_State_pendQ__O)
                  00012d9c    00000004     empty_min_pem4f.oem4f (.const:ti_sysbios_knl_Swi_Object__count__C)
                  00012da0    00000004     empty_min_pem4f.oem4f (.const:ti_sysbios_knl_Task_Module_State_inactiveQ__O)
                  00012da4    00000004     empty_min_pem4f.oem4f (.const:ti_sysbios_knl_Task_Object__count__C)
                  00012da8    00000004     empty_min_pem4f.oem4f (.const:ti_sysbios_knl_Task_allBlockedFunc__C)
                  00012dac    00000004     empty_min_pem4f.oem4f (.const:ti_sysbios_knl_Task_defaultStackHeap__C)
                  00012db0    00000004     empty_min_pem4f.oem4f (.const:ti_sysbios_knl_Task_defaultStackSize__C)
                  00012db4    00000004     empty_min_pem4f.oem4f (.const:ti_sysbios_knl_Task_numConstructedTasks__C)
                  00012db8    00000004     empty_min_pem4f.oem4f (.const:xdc_runtime_Assert_E_assertFailed__C)
                  00012dbc    00000004     empty_min_pem4f.oem4f (.const:xdc_runtime_Core_A_initializedParams__C)
                  00012dc0    00000004     empty_min_pem4f.oem4f (.const:xdc_runtime_Core_Module__diagsEnabled__C)
                  00012dc4    00000004     empty_min_pem4f.oem4f (.const:xdc_runtime_Core_Module__diagsIncluded__C)
                  00012dc8    00000004     empty_min_pem4f.oem4f (.const:xdc_runtime_Core_Module__diagsMask__C)
                  00012dcc    00000004     empty_min_pem4f.oem4f (.const:xdc_runtime_Error_E_generic__C)
                  00012dd0    00000004     empty_min_pem4f.oem4f (.const:xdc_runtime_Error_E_memory__C)
                  00012dd4    00000004     empty_min_pem4f.oem4f (.const:xdc_runtime_Error_Module__diagsEnabled__C)
                  00012dd8    00000004     empty_min_pem4f.oem4f (.const:xdc_runtime_Error_Module__diagsIncluded__C)
                  00012ddc    00000004     empty_min_pem4f.oem4f (.const:xdc_runtime_Error_Module__diagsMask__C)
                  00012de0    00000004     empty_min_pem4f.oem4f (.const:xdc_runtime_Error_Module__loggerFxn8__C)
                  00012de4    00000004     empty_min_pem4f.oem4f (.const:xdc_runtime_Error_Module__loggerObj__C)
                  00012de8    00000004     empty_min_pem4f.oem4f (.const:xdc_runtime_Error_policyFxn__C)
                  00012dec    00000004     empty_min_pem4f.oem4f (.const:xdc_runtime_Error_raiseHook__C)
                  00012df0    00000004     empty_min_pem4f.oem4f (.const:xdc_runtime_IGateProvider_Interface__BASE__C)
                  00012df4    00000004     empty_min_pem4f.oem4f (.const:xdc_runtime_IHeap_Interface__BASE__C)
                  00012df8    00000004     empty_min_pem4f.oem4f (.const:xdc_runtime_IModule_Interface__BASE__C)
                  00012dfc    00000004     empty_min_pem4f.oem4f (.const:xdc_runtime_Log_L_error__C)
                  00012e00    00000004     empty_min_pem4f.oem4f (.const:xdc_runtime_Memory_defaultHeapInstance__C)
                  00012e04    00000004     empty_min_pem4f.oem4f (.const:xdc_runtime_Startup_execImpl__C)
                  00012e08    00000004     empty_min_pem4f.oem4f (.const:xdc_runtime_Startup_maxPasses__C)
                  00012e0c    00000004     empty_min_pem4f.oem4f (.const:xdc_runtime_Startup_sfxnRts__C)
                  00012e10    00000004     empty_min_pem4f.oem4f (.const:xdc_runtime_Startup_sfxnTab__C)
                  00012e14    00000004     empty_min_pem4f.oem4f (.const:xdc_runtime_SysMin_bufSize__C)
                  00012e18    00000004     empty_min_pem4f.oem4f (.const:xdc_runtime_SysMin_outputFunc__C)
                  00012e1c    00000004     empty_min_pem4f.oem4f (.const:xdc_runtime_System_Module__gateObj__C)
                  00012e20    00000004     empty_min_pem4f.oem4f (.const:xdc_runtime_System_abortFxn__C)
                  00012e24    00000004     empty_min_pem4f.oem4f (.const:xdc_runtime_System_exitFxn__C)
                  00012e28    00000004     empty_min_pem4f.oem4f (.const:xdc_runtime_System_extendFxn__C)
                  00012e2c    00000004     empty_min_pem4f.oem4f (.const:xdc_runtime_System_maxAtexitHandlers__C)
                  00012e30    00000004     empty_min_pem4f.oem4f (.const:xdc_runtime_Text_charTab__C)
                  00012e34    00000004     empty_min_pem4f.oem4f (.const:xdc_runtime_Text_nameEmpty__C)
                  00012e38    00000004     empty_min_pem4f.oem4f (.const:xdc_runtime_Text_nameStatic__C)
                  00012e3c    00000004     empty_min_pem4f.oem4f (.const:xdc_runtime_Text_nameUnknown__C)
                  00012e40    00000004     empty_min_pem4f.oem4f (.const:xdc_runtime_Text_nodeTab__C)
                  00012e44    00000004     empty_min_pem4f.oem4f (.const:xdc_runtime_Text_visitRopeFxn__C)
                  00012e48    00000002     empty_min_pem4f.oem4f (.const:xdc_runtime_Error_Module__loggerDefined__C)
                  00012e4a    00000002     empty_min_pem4f.oem4f (.const:xdc_runtime_Error_maxDepth__C)
                  00012e4c    00000002     empty_min_pem4f.oem4f (.const:xdc_runtime_Main_Module__id__C)
                  00012e4e    00000002     empty_min_pem4f.oem4f (.const:xdc_runtime_Memory_Module__id__C)
                  00012e50    00000002     empty_min_pem4f.oem4f (.const:xdc_runtime_SysMin_flushAtExit__C)
                  00012e52    00000002     empty_min_pem4f.oem4f (.const:xdc_runtime_Text_charCnt__C)
                  00012e54    00000002     empty_min_pem4f.oem4f (.const:xdc_runtime_Text_isLoaded__C)
                  00012e56    00000002     empty_min_pem4f.oem4f (.const:xdc_runtime_Text_registryModsLastId__C)
                  00012e58    00000002     empty_min_pem4f.oem4f (.const:xdc_runtime_Text_unnamedModsLastId__C)

.cinit     0    00012e60    00000420     
                  00012e60    000003e5     (.cinit..data.load) [load image, compression = lzss]
                  00013245    00000003     --HOLE-- [fill = 0]
                  00013248    0000000c     (__TI_handler_table)
                  00013254    00000004     --HOLE-- [fill = 0]
                  00013258    00000008     (.cinit..bss.load) [load image, compression = zero_init]
                  00013260    00000008     (.cinit..vecs.load) [load image, compression = zero_init]
                  00013268    00000018     (__TI_cinit_table)

.init_array 
*          0    00000000    00000000     UNINITIALIZED

.resetVecs 
*          0    00000000    0000003c     
                  00000000    0000003c     empty_min_pem4f.oem4f (.resetVecs)

.bss       0    20004360    000036f8     UNINITIALIZED
                  20004360    00001000     (.common:taskSeStack)
                  20005360    00001000     (.common:taskUiStack)
                  20006360    00000400     (.common:ti_sysbios_heaps_HeapMem_Instance_State_0_buf__A)
                  20006760    00000360     (.common:ti_sysbios_family_arm_m3_Hwi_dispatchTable)
                  20006ac0    00000200     (.common:taskAccelStack)
                  20006cc0    00000200     (.common:taskLightStack)
                  20006ec0    00000200     (.common:taskTempStack)
                  200070c0    00000198     (.common:uartTivaObjects)
                  20007258    00000140     grlib.lib : widget.obj (.bss:g_psMQ)
                  20007398    00000120     rtsv7M4_T_le_v4SPD16_eabi.lib : trgmsg.c.obj (.bss:_CIOBUF_)
                  200074b8    00000090     drivers_tivaware.aem4f : GPIOTiva.oem4f (.bss:gpioCallbackInfo)
                  20007548    00000080     (.common:i2cTivaObjects)
                  200075c8    00000080     (.common:xdc_runtime_SysMin_Module_State_0_outbuf__A)
                  20007648    00000040     (.common:uartTivaRingBuffer)
                  20007688    00000038     (.common:motorLibPWMObjects)
                  200076c0    0000002c     (.common:sContext)
                  200076ec    00000028     (.common:currentBuffer)
                  20007714    00000028     (.common:powerBuffer)
                  2000773c    00000024     (.common:clkDrawStruct)
                  20007760    00000024     (.common:clkSensorParams)
                  20007784    00000024     (.common:clkUIStruct)
                  200077a8    00000024     (.common:clockAccelerationStruct)
                  200077cc    00000024     (.common:clockCurrentStruct)
                  200077f0    00000024     (.common:clockLightStruct)
                  20007814    00000024     (.common:clockTempStruct)
                  20007838    00000020     motorlib.lib : motorlib.obj (.bss:PWMStruct)
                  20007858    00000020     user_interface.obj (.bss:currentValue$1)
                  20007878    00000020     empty_min.obj (.bss:t$1)
                  20007898    00000020     (.common:g_pui8Dictionary)
                  200078b8    0000001c     rtsv7M4_T_le_v4SPD16_eabi.lib : asctime.c.obj (.bss:time_buf)
                  200078d4    0000001c     (.common:semAccelStruct)
                  200078f0    0000001c     (.common:semLightStruct)
                  2000790c    0000001c     (.common:semTempStruct)
                  20007928    00000018     (.common:accelerationBuffer)
                  20007940    00000018     (.common:lightBuffer)
                  20007958    00000018     (.common:motorLibPWMTimerObjects)
                  20007970    00000018     (.common:rpm_buffer)
                  20007988    00000014     (.common:textBuffer)
                  2000799c    00000010     touch.obj (.bss:g_pi16Samples)
                  200079ac    00000010     (.common:boardTempBuffer)
                  200079bc    00000010     (.common:motorTempBuffer)
                  200079cc    00000008     touch.obj (.bss)
                  200079d4    00000008     (.common:highLimit)
                  200079dc    00000008     (.common:lowLimit)
                  200079e4    00000008     (.common:parmbuf)
                  200079ec    00000004     (.common:clkHandle)
                  200079f0    00000004     (.common:clkHandleGraph)
                  200079f4    00000004     (.common:g_pi32ParmSet)
                  200079f8    00000004     (.common:g_psGrLibDefaults)
                  200079fc    00000004     (.common:gateHwi)
                  20007a00    00000004     (.common:glThresholdAccel)
                  20007a04    00000004     (.common:glThresholdCurrent)
                  20007a08    00000004     (.common:gpioInterruptVectors)
                  20007a0c    00000004     (.common:graphPageIdentifier)
                  20007a10    00000004     (.common:maxGraph)
                  20007a14    00000004     (.common:minGraph)
                  20007a18    00000004     (.common:motorAccelerationLimit)
                  20007a1c    00000004     (.common:motorCurrentLimit)
                  20007a20    00000004     (.common:motorSpeedLimit)
                  20007a24    00000004     (.common:motorTemperatureLimit)
                  20007a28    00000004     (.common:semAccelHandle)
                  20007a2c    00000004     (.common:semLightHandle)
                  20007a30    00000004     (.common:semTempHandle)
                  20007a34    00000004     (.common:sensori2c)
                  20007a38    00000004     (.common:settingsPageIdentifier)
                  20007a3c    00000004     (.common:t1)
                  20007a40    00000004     (.common:uartTemp)
                  20007a44    00000002     (.common:countCurrentTicks)
                  20007a46    00000002     (.common:drawingGraph)
                  20007a48    00000002     (.common:g_i16TouchX)
                  20007a4a    00000002     (.common:g_i16TouchY)
                  20007a4c    00000002     (.common:glThresholdTemp)
                  20007a4e    00000002     (.common:height)
                  20007a50    00000002     (.common:s_x)
                  20007a52    00000002     (.common:s_y)
                  20007a54    00000002     (.common:width)
                  20007a56    00000001     (.common:boardTempAddr)
                  20007a57    00000001     (.common:motorTempAddr)

.data      0    20007a58    00000d0c     UNINITIALIZED
                  20007a58    00000080     empty_min_pem4f.oem4f (.data:ti_sysbios_knl_Swi_Module_State_0_readyQ__A)
                  20007ad8    00000080     empty_min_pem4f.oem4f (.data:ti_sysbios_knl_Task_Module_State_0_readyQ__A)
                  20007b58    00000050     user_interface.obj (.data:g_sGraphAccel)
                  20007ba8    00000050     user_interface.obj (.data:g_sGraphActBack)
                  20007bf8    00000050     user_interface.obj (.data:g_sGraphAmbientTemp)
                  20007c48    00000050     user_interface.obj (.data:g_sGraphBack)
                  20007c98    00000050     user_interface.obj (.data:g_sGraphLight)
                  20007ce8    00000050     user_interface.obj (.data:g_sGraphMotorTemp)
                  20007d38    00000050     user_interface.obj (.data:g_sGraphOption)
                  20007d88    00000050     user_interface.obj (.data:g_sGraphPower)
                  20007dd8    00000050     user_interface.obj (.data:g_sGraphSpeed)
                  20007e28    00000050     user_interface.obj (.data:g_sMotorOption)
                  20007e78    00000050     user_interface.obj (.data:g_sSetAccel)
                  20007ec8    00000050     user_interface.obj (.data:g_sSetAdd)
                  20007f18    00000050     user_interface.obj (.data:g_sSetBack)
                  20007f68    00000050     user_interface.obj (.data:g_sSetCurrent)
                  20007fb8    00000050     user_interface.obj (.data:g_sSetMotor)
                  20008008    00000050     user_interface.obj (.data:g_sSetName)
                  20008058    00000050     user_interface.obj (.data:g_sSetOption)
                  200080a8    00000050     user_interface.obj (.data:g_sSetSave)
                  200080f8    00000050     user_interface.obj (.data:g_sSetSub)
                  20008148    00000050     user_interface.obj (.data:g_sSetTemp)
                  20008198    00000050     user_interface.obj (.data:g_sSetValue)
                  200081e8    00000044     empty_min_pem4f.oem4f (.data:ti_sysbios_knl_Task_Module__state__V)
                  2000822c    00000040     user_interface.obj (.data:g_sGraph)
                  2000826c    00000040     user_interface.obj (.data:g_sGraphPage)
                  200082ac    00000040     user_interface.obj (.data:g_sMenuGraphPage)
                  200082ec    00000040     user_interface.obj (.data:g_sMenuSetPage)
                  2000832c    00000040     user_interface.obj (.data:g_sMenuTypePage)
                  2000836c    00000040     user_interface.obj (.data:g_sSettingPage)
                  200083ac    00000040     empty_min_pem4f.oem4f (.data:ti_sysbios_family_arm_lm4_Timer_Module_State_0_device__A)
                  200083ec    00000040     empty_min_pem4f.oem4f (.data:ti_sysbios_family_arm_lm4_Timer_Object__table__V)
                  2000842c    00000038     empty_min_pem4f.oem4f (.data:ti_sysbios_gates_GateMutex_Object__table__V)
                  20008464    00000034     empty_min_pem4f.oem4f (.data:ti_sysbios_family_arm_m3_Hwi_Module__state__V)
                  20008498    00000030     empty_min_pem4f.oem4f (.data:ti_sysbios_knl_Swi_Object__table__V)
                  200084c8    0000002d     grlib.lib : widget.obj (.data)
                  200084f5    00000003     empty_min.obj (.data)
                  200084f8    0000002c     empty_min_pem4f.oem4f (.data:ti_sysbios_knl_Clock_Module__state__V)
                  20008524    00000024     rtsv7M4_T_le_v4SPD16_eabi.lib : localtim.c.obj (.data:local_tm)
                  20008548    00000024     empty_min_pem4f.oem4f (.data:ti_sysbios_BIOS_Module__state__V)
                  2000856c    00000020     EK_TM4C1294XL.obj (.data:gpioPinConfigs)
                  2000858c    00000020     empty_min_pem4f.oem4f (.data:ti_sysbios_family_arm_lm4_Timer_Module_State_0_handles__A)
                  200085ac    00000020     empty_min_pem4f.oem4f (.data:ti_sysbios_knl_Clock_Object__table__V)
                  200085cc    0000001c     empty_min_pem4f.oem4f (.data:ti_sysbios_knl_Swi_Module__state__V)
                  200085e8    0000001a     motor_api.obj (.data)
                  20008602    00000018     drivers_tivaware.aem4f : PWMTiva.oem4f (.data)
                  2000861a    00000002     empty_min_pem4f.oem4f (.data:ti_sysbios_family_arm_m3_Hwi_Module_State_0_excActive__A)
                  2000861c    00000018     EK_TM4C1294XL.obj (.data:gpioCallbackFunctions)
                  20008634    00000018     empty_min_pem4f.oem4f (.data:ti_sysbios_family_arm_m3_Hwi_Object__table__V)
                  2000864c    00000018     empty_min_pem4f.oem4f (.data:ti_sysbios_heaps_HeapMem_Object__table__V)
                  20008664    00000010     rtsv7M4_T_le_v4SPD16_eabi.lib : tmzone.c.obj (.data:_tz)
                  20008674    00000010     user_interface.obj (.data:e2prom_read_settings)
                  20008684    00000010     user_interface.obj (.data:e2prom_write_settings)
                  20008694    00000010     user_interface.obj (.data)
                  200086a4    0000000c     empty_min_pem4f.oem4f (.data:ti_sysbios_family_arm_lm4_Timer_Module__state__V)
                  200086b0    0000000c     empty_min_pem4f.oem4f (.data:xdc_runtime_SysMin_Module__state__V)
                  200086bc    00000008     rtsv7M4_T_le_v4SPD16_eabi.lib : _lock.c.obj (.data:$O1$$)
                  200086c4    00000008     empty_min_pem4f.oem4f (.data:ti_sysbios_family_arm_m3_Hwi_Module__root__V)
                  200086cc    00000008     empty_min_pem4f.oem4f (.data:ti_sysbios_gates_GateHwi_Module__root__V)
                  200086d4    00000008     empty_min_pem4f.oem4f (.data:ti_sysbios_gates_GateMutex_Module__root__V)
                  200086dc    00000008     empty_min_pem4f.oem4f (.data:ti_sysbios_hal_Hwi_Module__root__V)
                  200086e4    00000008     empty_min_pem4f.oem4f (.data:ti_sysbios_heaps_HeapMem_Module__root__V)
                  200086ec    00000008     empty_min_pem4f.oem4f (.data:ti_sysbios_knl_Clock_Module__root__V)
                  200086f4    00000008     empty_min_pem4f.oem4f (.data:ti_sysbios_knl_Queue_Module__root__V)
                  200086fc    00000008     empty_min_pem4f.oem4f (.data:ti_sysbios_knl_Semaphore_Module__root__V)
                  20008704    00000008     empty_min_pem4f.oem4f (.data:ti_sysbios_knl_Task_Module__root__V)
                  2000870c    00000008     empty_min_pem4f.oem4f (.data:xdc_runtime_Registry_Module__state__V)
                  20008714    00000008     empty_min_pem4f.oem4f (.data:xdc_runtime_Startup_Module__state__V)
                  2000871c    00000008     empty_min_pem4f.oem4f (.data:xdc_runtime_System_Module_State_0_atexitHandlers__A)
                  20008724    00000008     empty_min_pem4f.oem4f (.data:xdc_runtime_System_Module__state__V)
                  2000872c    00000005     drivers_tivaware.aem4f : GPIOTiva.oem4f (.data)
                  20008731    00000005     sensor_api.obj (.data)
                  20008736    00000002     empty_min_pem4f.oem4f (.data:xdc_runtime_Error_Module__state__V)
                  20008738    00000004     drivers_tivaware.aem4f : I2C.oem4f (.data)
                  2000873c    00000004                            : PWM.oem4f (.data)
                  20008740    00000004                            : UART.oem4f (.data)
                  20008744    00000004     rtsv7M4_T_le_v4SPD16_eabi.lib : errno.c.obj (.data)
                  20008748    00000004                                   : stkdepth_vars.c.obj (.data)
                  2000874c    00000004     empty_min_pem4f.oem4f (.data:ti_sysbios_family_arm_m3_Hwi_Module_State_0_excContext__A)
                  20008750    00000004     empty_min_pem4f.oem4f (.data:ti_sysbios_family_arm_m3_Hwi_Module_State_0_excStack__A)
                  20008754    00000004     empty_min_pem4f.oem4f (.data:ti_sysbios_gates_GateHwi_Object__table__V)
                  20008758    00000004     empty_min_pem4f.oem4f (.data:ti_sysbios_knl_Task_Module_State_0_idleTask__A)
                  2000875c    00000004     touch.obj (.data)
                  20008760    00000004     empty_min_pem4f.oem4f (.data:xdc_runtime_Memory_Module__state__V)

.stack     0    20000360    00004000     UNINITIALIZED
                  20000360    00004000     --HOLE--

.bootVecs 
*          0    00000000    00000008     DSECT
                  00000000    00000008     boot.aem4f : boot.oem4f (.bootVecs)

.vecs      0    20000000    00000360     UNINITIALIZED
                  20000000    00000360     empty_min_pem4f.oem4f (.vecs)

xdc.meta   0    00000000    000000dc     COPY SECTION
                  00000000    000000dc     empty_min_pem4f.oem4f (xdc.meta)

MODULE SUMMARY

       Module                             code    ro data   rw data
       ------                             ----    -------   -------
    .\
       empty_min.obj                      1053    0         8389   
       EK_TM4C1294XL.obj                  336     140       656    
    +--+----------------------------------+-------+---------+---------+
       Total:                             1389    140       9045   
                                                                   
    .\drivers\
       Kentec320x240x16_ssd2119_spi.obj   1968    40        0      
       touch.obj                          1280    28        36     
       pinout.obj                         620     0         0      
    +--+----------------------------------+-------+---------+---------+
       Total:                             3868    68        36     
                                                                   
    .\motor\
       motor_api.obj                      1012    0         54     
    +--+----------------------------------+-------+---------+---------+
       Total:                             1012    0         54     
                                                                   
    .\sensors\
       sensor_api.obj                     2896    0         1999   
    +--+----------------------------------+-------+---------+---------+
       Total:                             2896    0         1999   
                                                                   
    .\sensors\bmi160\
       bmi160.obj                         714     0         0      
    +--+----------------------------------+-------+---------+---------+
       Total:                             714     0         0      
                                                                   
    .\sensors\opt3001\
       opt3001.obj                        504     0         0      
    +--+----------------------------------+-------+---------+---------+
       Total:                             504     0         0      
                                                                   
    .\sensors\tmp107\
       tmp107.obj                         736     0         0      
    +--+----------------------------------+-------+---------+---------+
       Total:                             736     0         0      
                                                                   
    .\ui\
       user_interface.obj                 4346    198       2188   
    +--+----------------------------------+-------+---------+---------+
       Total:                             4346    198       2188   
                                                                   
    C:\Users\jshea\Documents\EGH456\Debug\configPkg\package\cfg\
       empty_min_pem4f.oem4f              2436    7709      3860   
    +--+----------------------------------+-------+---------+---------+
       Total:                             2436    7709      3860   
                                                                   
    ../drivers/motorlib.lib
       motorlib.obj                       1700    196       112    
    +--+----------------------------------+-------+---------+---------+
       Total:                             1700    196       112    
                                                                   
    C:/ti/tirtos_tivac_2_16_00_08/products/TivaWare_C_Series-2.1.1.71b/grlib/ccs/Debug/grlib.lib
       fontcmss18b.obj                    0       2122      0      
       image.obj                          1634    0         32     
       string.obj                         1386    0         0      
       widget.obj                         816     0         365    
       pushbutton.obj                     656     0         0      
       line.obj                           648     0         0      
       canvas.obj                         424     0         0      
       rectangle.obj                      236     0         0      
       context.obj                        202     16        4      
       charmap.obj                        8       0         0      
    +--+----------------------------------+-------+---------+---------+
       Total:                             6010    2138      401    
                                                                   
    C:/ti/tirtos_tivac_2_16_00_08/products/tidrivers_tivac_2_16_00_08/packages/ti/drivers/lib/drivers_tivaware.aem4f
       UARTTiva.oem4f                     2262    116       0      
       GPIOTiva.oem4f                     860     156       153    
       PWMTiva.oem4f                      962     32        24     
       I2CTiva.oem4f                      798     28        0      
       PWMTimerTiva.oem4f                 666     32        0      
       UART.oem4f                         148     36        4      
       RingBuf.oem4f                      164     0         0      
       I2C.oem4f                          130     16        4      
       PWM.oem4f                          130     12        4      
    +--+----------------------------------+-------+---------+---------+
       Total:                             6120    428       189    
                                                                   
    C:/ti/tivaware_c_series_2_1_4_178/driverlib/ccs/Debug/driverlib.lib
       sysctl.obj                         830     596       0      
       gpio.obj                           718     144       0      
       eeprom.obj                         444     0         0      
       adc.obj                            342     0         0      
       timer.obj                          318     0         0      
       uart.obj                           234     0         0      
       interrupt.obj                      120     112       0      
       pwm.obj                            178     0         0      
       i2c.obj                            158     0         0      
       ssi.obj                            106     0         0      
       cpu.obj                            12      0         0      
    +--+----------------------------------+-------+---------+---------+
       Total:                             3460    852       0      
                                                                   
    C:\Users\jshea\Documents\EGH456\src\sysbios\sysbios.aem4f
       BIOS.obj                           9080    0         0      
       m3_Hwi_asm.obj                     314     0         0      
       m3_TaskSupport_asm.obj             180     0         0      
       m3_Hwi_asm_switch.obj              118     0         0      
    +--+----------------------------------+-------+---------+---------+
       Total:                             9692    0         0      
                                                                   
    C:\ti\ccs930\ccs\tools\compiler\ti-cgt-arm_18.12.4.LTS\lib\rtsv7M4_T_le_v4SPD16_eabi.lib
       _printfi.c.obj                     4851    0         0      
       s_exp2.c.obj                       512     4096      0      
       mktime.c.obj                       672     96        0      
       fd_add_t2.asm.obj                  438     0         0      
       trgmsg.c.obj                       108     0         288    
       e_sqrt.c.obj                       344     0         0      
       localtim.c.obj                     308     0         36     
       fd_div_t2.asm.obj                  310     0         0      
       asctime.c.obj                      108     152       28     
       s_scalbn.c.obj                     272     0         0      
       fd_cmp_t2.asm.obj                  268     0         0      
       ctype.c.obj                        0       257       0      
       fd_mul_t2.asm.obj                  252     0         0      
       memcpy_t2.asm.obj                  156     0         0      
       ull_div_t2.asm.obj                 150     0         0      
       snprintf.c.obj                     148     0         0      
       memset_t2.asm.obj                  122     0         0      
       fd_tos_t2.asm.obj                  110     0         0      
       ll_div_t2.asm.obj                  110     0         0      
       copy_decompress_lzss.c.obj         104     0         0      
       s_frexp.c.obj                      100     0         0      
       sprintf.c.obj                      98      0         0      
       hostwrite.c.obj                    88      0         0      
       ltoa.c.obj                         84      0         0      
       atoi.c.obj                         76      0         0      
       cpy_tbl.c.obj                      76      0         0      
       fd_toi_t2.asm.obj                  72      0         0      
       hosttime.c.obj                     72      0         0      
       fd_tou_t2.asm.obj                  68      0         0      
       u_divt2.asm.obj                    64      0         0      
       fs_tod_t2.asm.obj                  56      0         0      
       i_tofd_t2.asm.obj                  46      0         0      
       _lock.c.obj                        26      0         8      
       u_tofd_t2.asm.obj                  32      0         0      
       memccpy.c.obj                      28      0         0      
       s_copysign.c.obj                   26      0         0      
       args_main.c.obj                    24      0         0      
       strchr.c.obj                       22      0         0      
       strcpy.c.obj                       20      0         0      
       strlen.c.obj                       20      0         0      
       wcslen.c.obj                       18      0         0      
       tmzone.c.obj                       0       0         16     
       copy_decompress_none.c.obj         14      0         0      
       time.c.obj                         14      0         0      
       copy_zero_init.c.obj               12      0         0      
       errno.c.obj                        8       0         4      
       hostopen.c.obj                     0       0         8      
       exit.c.obj                         4       0         0      
       stkdepth_vars.c.obj                0       0         4      
       div0.asm.obj                       2       0         0      
    +--+----------------------------------+-------+---------+---------+
       Total:                             10513   4601      392    
                                                                   
    C:\ti\tirtos_tivac_2_16_00_08\products\bios_6_45_01_29\packages\ti\catalog\arm\cortexm4\tiva\ce\lib\Boot.aem4f
       Boot_sysctl.oem4f                  628     452       0      
       Boot.oem4f                         152     0         0      
    +--+----------------------------------+-------+---------+---------+
       Total:                             780     452       0      
                                                                   
    C:\ti\tirtos_tivac_2_16_00_08\products\bios_6_45_01_29\packages\ti\targets\arm\rtsarm\lib\auto_init.aem4f
       auto_init.oem4f                    160     0         0      
    +--+----------------------------------+-------+---------+---------+
       Total:                             160     0         0      
                                                                   
    C:\ti\tirtos_tivac_2_16_00_08\products\bios_6_45_01_29\packages\ti\targets\arm\rtsarm\lib\boot.aem4f
       boot.oem4f                         88      0         0      
    +--+----------------------------------+-------+---------+---------+
       Total:                             88      0         0      
                                                                   
    C:\ti\tirtos_tivac_2_16_00_08\products\bios_6_45_01_29\packages\ti\targets\arm\rtsarm\lib\ti.targets.arm.rtsarm.aem4f
       System.oem4f                       1255    0         0      
       Text.oem4f                         672     0         0      
       Error.oem4f                        524     0         0      
       Core-mem.oem4f                     358     0         0      
       Startup.oem4f                      328     0         0      
       SysMin.oem4f                       248     0         0      
       Core-smem.oem4f                    204     0         0      
       Memory.oem4f                       176     0         0      
       Assert.oem4f                       84      0         0      
       Core-params.oem4f                  70      0         0      
       Core-label.oem4f                   52      0         0      
       Registry.oem4f                     32      0         0      
       Gate.oem4f                         28      0         0      
    +--+----------------------------------+-------+---------+---------+
       Total:                             4031    0         0      
                                                                   
       Stack:                             0       0         16384  
       Linker Generated:                  0       1049      0      
    +--+----------------------------------+-------+---------+---------+
       Grand Total:                       60455   17831     34660  


LINKER GENERATED COPY TABLES

__TI_cinit_table @ 00013268 records: 3, size/record: 8, table size: 24
	.data: load addr=00012e60, load size=000003e5 bytes, run addr=20007a58, run size=00000d0c bytes, compression=lzss
	.bss: load addr=00013258, load size=00000008 bytes, run addr=20004360, run size=000036f8 bytes, compression=zero_init
	.vecs: load addr=00013260, load size=00000008 bytes, run addr=20000000, run size=00000360 bytes, compression=zero_init


LINKER GENERATED HANDLER TABLE

__TI_handler_table @ 00013248 records: 3, size/record: 4, table size: 12
	index: 0, handler: __TI_decompress_lzss
	index: 1, handler: __TI_decompress_none
	index: 2, handler: __TI_zero_init


GLOBAL SYMBOLS: SORTED ALPHABETICALLY BY Name 

address   name                                                                 
-------   ----                                                                 
0000eb29  ADCIntClear                                                          
0000e7a9  ADCIntEnable                                                         
0000d5d9  ADCIntStatus                                                         
0000e217  ADCProcessorTrigger                                                  
0000b7bd  ADCSequenceConfigure                                                 
0000df09  ADCSequenceDataGet                                                   
0000e939  ADCSequenceEnable                                                    
00009815  ADCSequenceStepConfigure                                             
0000593d  BMI160GetAccelData                                                   
000083d7  BMI160Init                                                           
0000c395  BMI160InterruptThreshold                                             
0000c601  BMI160ReadI2C                                                        
0000bf69  BMI160WriteI2C                                                       
000077e5  C$$EXIT                                                              
0000cce7  C$$IO$$                                                              
0000e9d5  CPUcpsie                                                             
0000e4d5  CanvasMsgProc                                                        
0000dcc5  ClockFxn                                                             
00008689  DrawDateTime                                                         
00009985  DrawSettingsParameters                                               
0000c6c9  EEPROMInit                                                           
00007b11  EEPROMProgram                                                        
0000cba1  EEPROMRead                                                           
0000ebff  EK_TM4C1294XL_initGPIO                                               
00007f95  EK_TM4C1294XL_initGeneral                                            
0000c949  EK_TM4C1294XL_initI2C                                                
0000b51d  EK_TM4C1294XL_initUART                                               
0000d849  GPIODirModeSet                                                       
00004e3b  GPIOIntClear                                                         
0000e9e1  GPIOIntEnable                                                        
0000e947  GPIOIntStatus                                                        
0000b471  GPIOIntTypeSet                                                       
00005f79  GPIOPadConfigSet                                                     
0000bfb1  GPIOPinConfigure                                                     
0000756b  GPIOPinRead                                                          
0000e629  GPIOPinTypeADC                                                       
0000e63b  GPIOPinTypeEthernetLED                                               
0000e22f  GPIOPinTypeGPIOOutput                                                
0000e64d  GPIOPinTypeI2C                                                       
0000e65f  GPIOPinTypeI2CSCL                                                    
0000e671  GPIOPinTypePWM                                                       
0000e683  GPIOPinTypeSSI                                                       
0000e695  GPIOPinTypeTimer                                                     
0000e6a7  GPIOPinTypeUART                                                      
00008533  GPIOPinWrite                                                         
00012c6c  GPIOTiva_config                                                      
0000d0f5  GPIO_enableInt                                                       
0000a611  GPIO_hwiIntFxn                                                       
00009035  GPIO_init                                                            
0000d125  GPIO_read                                                            
0000b80d  GPIO_setCallback                                                     
000057ed  GPIO_setConfig                                                       
0000b85d  GPIO_write                                                           
0000a9fd  GrContextClipRegionSet                                               
00008e6b  GrContextFontSet                                                     
0000a1a9  GrContextInit                                                        
00007bd5  GrDefaultStringRenderer                                              
0000d6e9  GrFontBaselineGet                                                    
0000df27  GrFontCodepageGet                                                    
0000dc19  GrFontGlyphDataGet                                                   
00002cbd  GrFontGlyphRender                                                    
0000d715  GrFontHeightGet                                                      
0000da09  GrFontInfoGet                                                        
0000e955  GrImageDraw                                                          
00006941  GrLineDraw                                                           
0000c1f1  GrLineDrawH                                                          
0000c237  GrLineDrawV                                                          
0000ec07  GrMapISO8859_1_Unicode                                               
0000a3b1  GrRectDraw                                                           
00009379  GrRectFill                                                           
0000e3f9  GrStringDraw                                                         
0000d607  GrStringNextCharGet                                                  
0000a069  GrStringWidthGet                                                     
0000bff9  HOSTtime                                                             
0000b311  HOSTwrite                                                            
00001135  I2CMasterControl                                                     
00005125  I2CMasterDataGet                                                     
00005695  I2CMasterDataPut                                                     
0000eb33  I2CMasterDisable                                                     
0000eb3d  I2CMasterEnable                                                      
0000e40f  I2CMasterErr                                                         
0000bb81  I2CMasterInitExpClk                                                  
0000ec0f  I2CMasterIntClear                                                    
0000950b  I2CMasterIntDisable                                                  
0000e75b  I2CMasterIntEnable                                                   
0000ec17  I2CMasterSlaveAddrSet                                                
0000ce77  I2CTiva_close                                                        
0000ec79  I2CTiva_control                                                      
00012bd4  I2CTiva_fxnTable                                                     
0000eb47  I2CTiva_init                                                         
000072d5  I2CTiva_open                                                         
00009699  I2CTiva_transfer                                                     
0000e7b9  I2C_Params_init                                                      
00012c0c  I2C_config                                                           
00012c94  I2C_defaultParams                                                    
0000cbd9  I2C_init                                                             
0000d155  I2C_open                                                             
0000eb51  I2C_transfer                                                         
0000a211  IntEnable                                                            
0000e7c9  IntMasterEnable                                                      
00003f45  Kentec320x240x16_SSD2119Init                                         
000099f9  OPT3001Convert                                                       
0000d635  OPT3001Enable                                                        
0000c709  OPT3001ReadI2C                                                       
0000a417  OPT3001ReadLight                                                     
0000a675  OPT3001Test                                                          
0000b8ad  OPT3001WriteI2C                                                      
0000e511  PWMClockSet                                                          
0000dc3b  PWMGenConfigure                                                      
0000e9ed  PWMGenDisable                                                        
0000e9f9  PWMGenEnable                                                         
0000e6b9  PWMGenPeriodGet                                                      
0000e7d9  PWMGenPeriodSet                                                      
0000e6cb  PWMOutputInvert                                                      
0000e6dd  PWMOutputState                                                       
0000df45  PWMPulseWidthSet                                                     
00012a72  PWMTimerTiva_MAX_MATCH_VALUE                                         
00012a70  PWMTimerTiva_MAX_PRESCALAR_VALUE                                     
0000bed5  PWMTimerTiva_close                                                   
00009d71  PWMTimerTiva_control                                                 
00012a54  PWMTimerTiva_fxnTable                                                
0000eb65  PWMTimerTiva_getPeriodCounts                                         
0000ec7f  PWMTimerTiva_getPeriodMicroSecs                                      
0000ec27  PWMTimerTiva_init                                                    
000062e9  PWMTimerTiva_open                                                    
00008105  PWMTimerTiva_setDuty                                                 
00012a92  PWMTiva_MAX_MATCH_VALUE                                              
00012a90  PWMTiva_MAX_PRESCALAR                                                
0000a0d3  PWMTiva_close                                                        
000092f1  PWMTiva_control                                                      
00012a74  PWMTiva_fxnTable                                                     
0000dc5d  PWMTiva_getPeriodCounts                                              
0000df63  PWMTiva_getPeriodMicroSecs                                           
0000d185  PWMTiva_init                                                         
00004fb5  PWMTiva_open                                                         
00007017  PWMTiva_setDuty                                                      
0000e7e9  PWM_Params_init                                                      
0001253c  PWM_config                                                           
00012cd4  PWM_defaultParams                                                    
0000cc11  PWM_init                                                             
0000d1b5  PWM_open                                                             
0000eb6f  PWM_setDuty                                                          
000027e9  PinoutSet                                                            
0000d8ef  RectangularButtonMsgProc                                             
0000e6ef  RingBuf_construct                                                    
0000c749  RingBuf_get                                                          
0000ea05  RingBuf_peek                                                         
0000c2c3  RingBuf_put                                                          
UNDEFED   SHT$$INIT_ARRAY$$Base                                                
UNDEFED   SHT$$INIT_ARRAY$$Limit                                               
0000ec2f  SSIBusy                                                              
0000c985  SSIConfigSetExpClk                                                   
0000e701  SSIDataGetNonBlocking                                                
0000eb79  SSIDataPut                                                           
0000eb83  SSIEnable                                                            
00003571  SysCtlClockFreqSet                                                   
0000ec85  SysCtlDelay                                                          
0000e525  SysCtlPWMClockSet                                                    
0000cee5  SysCtlPeripheralEnable                                               
0000cc49  SysCtlPeripheralReady                                                
0000b8fd  SysCtlPeripheralReset                                                
0000b1ab  TMP107Decode5bitAddress                                              
0000c9c1  TMP107DecodeTemperatureResult                                        
0000b205  TMP107Encode5bitAddress                                              
0000abe1  TMP107Init                                                           
0000a13d  TMP107InitUart                                                       
0000b94d  TMP107LastDevicePoll                                                 
0000b719  TMP107SetConfig                                                      
0000e247  TMP107Transmit                                                       
00009b49  TMP107WaitForEcho                                                    
0000aac1  TimerConfigure                                                       
0000e25f  TimerControlLevel                                                    
0000b369  TimerControlTrigger                                                  
0000e279  TimerDisable                                                         
0000e963  TimerEnable                                                          
0000e713  TimerLoadSet                                                         
0000e725  TimerMatchSet                                                        
0000e737  TimerPrescaleMatchSet                                                
0000e749  TimerPrescaleSet                                                     
0000e539  TouchScreenCallbackSet                                               
00006729  TouchScreenInit                                                      
00004b4d  TouchScreenIntHandler                                                
0000eb8d  UARTCharGet                                                          
0000e971  UARTCharGetNonBlocking                                               
0000eb97  UARTCharPut                                                          
0000e97f  UARTCharPutNonBlocking                                               
0000c309  UARTConfigSetExpClk                                                  
0000dce5  UARTDisable                                                          
0000e54d  UARTEnable                                                           
0000ec8b  UARTFIFOLevelSet                                                     
0000ea11  UARTFlowControlSet                                                   
00006835  UARTIntClear                                                         
0000eba1  UARTIntDisable                                                       
0000ec37  UARTIntEnable                                                        
0000ebab  UARTIntStatus                                                        
0000ec91  UARTRxErrorClear                                                     
0000ec3f  UARTRxErrorGet                                                       
0000bbcd  UARTTiva_close                                                       
000090c1  UARTTiva_control                                                     
000128e0  UARTTiva_fxnTable                                                    
0000ea1d  UARTTiva_init                                                        
00003161  UARTTiva_open                                                        
0000c789  UARTTiva_read                                                        
0000cead  UARTTiva_readCancel                                                  
00008b77  UARTTiva_readPolling                                                 
00008dd7  UARTTiva_write                                                       
0000b99d  UARTTiva_writeCancel                                                 
0000c685  UARTTiva_writePolling                                                
0000e291  UART_Params_init                                                     
00012958  UART_config                                                          
0001297c  UART_defaultParams                                                   
0000cc81  UART_init                                                            
0000d1e5  UART_open                                                            
0000ebb5  UART_read                                                            
0000ebbf  UART_write                                                           
0000ebc9  UserInterfaceDraw                                                    
0000468d  UserInterfaceInit                                                    
0000da7b  WidgetAdd                                                            
000073b5  WidgetDefaultMsgProc                                                 
00007109  WidgetMessageQueueAdd                                                
0000a6d9  WidgetMessageQueueProcess                                            
000081bd  WidgetMessageSendPostOrder                                           
0000ac9d  WidgetMessageSendPreOrder                                            
0000e561  WidgetMutexGet                                                       
0000ec97  WidgetMutexPut                                                       
0000dfa1  WidgetPointerMessage                                                 
0000bc19  WidgetRemove                                                         
00000000  __ASM__                                                              
20007398  __CIOBUF_                                                            
0000005a  __ISA__                                                              
0000006d  __PLAT__                                                             
20004360  __STACK_END                                                          
00004000  __STACK_SIZE                                                         
0000008e  __TARG__                                                             
00013268  __TI_CINIT_Base                                                      
00013280  __TI_CINIT_Limit                                                     
00013248  __TI_Handler_Table_Base                                              
00013254  __TI_Handler_Table_Limit                                             
00008729  __TI_auto_init                                                       
0000a349  __TI_decompress_lzss                                                 
0000e9a9  __TI_decompress_none                                                 
ffffffff  __TI_pprof_out_hndl                                                  
00000041  __TI_printfi                                                         
ffffffff  __TI_prof_data_size                                                  
ffffffff  __TI_prof_data_start                                                 
0000cf4d  __TI_readmsg                                                         
00012e60  __TI_static_base__                                                   
0000ccb9  __TI_writemsg                                                        
0000ea41  __TI_zero_init                                                       
000000b4  __TRDR__                                                             
000093ff  __aeabi_cdcmpeq                                                      
000093ff  __aeabi_cdcmple                                                      
00009485  __aeabi_cdrcmple                                                     
00009c25  __aeabi_d2f                                                          
0000c089  __aeabi_d2iz                                                         
0000c3d9  __aeabi_d2uiz                                                        
000044df  __aeabi_dadd                                                         
00005d0d  __aeabi_ddiv                                                         
00006b49  __aeabi_dmul                                                         
000044d5  __aeabi_dsub                                                         
0000ec49  __aeabi_errno_addr                                                   
0000ccf1  __aeabi_f2d                                                          
0000d663  __aeabi_i2d                                                          
00002f13  __aeabi_idiv0                                                        
00002f13  __aeabi_ldiv0                                                        
00009c93  __aeabi_ldivmod                                                      
00009909  __aeabi_memclr                                                       
00009909  __aeabi_memclr4                                                      
00009909  __aeabi_memclr8                                                      
00008a41  __aeabi_memcpy                                                       
00008a41  __aeabi_memcpy4                                                      
00008a41  __aeabi_memcpy8                                                      
0000990b  __aeabi_memset                                                       
0000990b  __aeabi_memset4                                                      
0000990b  __aeabi_memset8                                                      
0000dd85  __aeabi_ui2d                                                         
0000c809  __aeabi_uidiv                                                        
0000c809  __aeabi_uidivmod                                                     
00008d41  __aeabi_uldivmod                                                     
ffffffff  __binit__                                                            
ffffffff  __c_args__                                                           
00005e45  __localtime32                                                        
000022d9  __mktime32                                                           
20000360  __stack                                                              
0000e98d  __time32                                                             
0000e2a9  _args_main                                                           
0000b261  _c_int00                                                             
00011fb4  _ctypes_                                                             
200086bc  _lock                                                                
00000a8f  _nop                                                                 
0000ea29  _register_lock                                                       
0000ea35  _register_unlock                                                     
20008664  _tz                                                                  
200086c0  _unlock                                                              
000077e5  abort                                                                
200085f4  accel_speed                                                          
20007928  accelerationBuffer                                                   
00009ddd  asctime                                                              
0000bc65  atoi                                                                 
ffffffff  binit                                                                
20007a56  boardTempAddr                                                        
200079ac  boardTempBuffer                                                      
0000e99b  callbackTriggerAccelEStop                                            
0000528d  checkSpeedSwi                                                        
2000773c  clkDrawStruct                                                        
200079ec  clkHandle                                                            
200079f0  clkHandleGraph                                                       
20007760  clkSensorParams                                                      
20007784  clkUIStruct                                                          
200077a8  clockAccelerationStruct                                              
200077cc  clockCurrentStruct                                                   
200077f0  clockLightStruct                                                     
20007814  clockTempStruct                                                      
0000bcb1  copy_in                                                              
0000e12d  copysign                                                             
0000e12d  copysignl                                                            
20007a44  countCurrentTicks                                                    
200085f8  cum_speed_error                                                      
200076ec  currentBuffer                                                        
200085f0  desired_speed_rpm                                                    
00000d07  disableMotor                                                         
00007645  drawDayNight                                                         
20007a46  drawingGraph                                                         
20008674  e2prom_read_settings                                                 
20008684  e2prom_write_settings                                                
0000a73d  eStopGUI                                                             
0000dd45  eStopMotor                                                           
00000cf9  enableMotor                                                          
20008744  errno                                                                
20008601  estop                                                                
00003771  exp2                                                                 
00003771  exp2l                                                                
0000a7a1  frexp                                                                
0000a7a1  frexpl                                                               
2000875c  g_i16TouchMin                                                        
20007a48  g_i16TouchX                                                          
20007a4a  g_i16TouchY                                                          
200079f4  g_pi32ParmSet                                                        
00012bf0  g_pi32TouchParameters                                                
00012ca4  g_psDefaultCodePointMapTable                                         
000120b8  g_sFontCmss18b                                                       
2000822c  g_sGraph                                                             
20007b58  g_sGraphAccel                                                        
20007ba8  g_sGraphActBack                                                      
20007bf8  g_sGraphAmbientTemp                                                  
20007c48  g_sGraphBack                                                         
20007c98  g_sGraphLight                                                        
20007ce8  g_sGraphMotorTemp                                                    
20007d38  g_sGraphOption                                                       
2000826c  g_sGraphPage                                                         
20007d88  g_sGraphPower                                                        
20007dd8  g_sGraphSpeed                                                        
00012908  g_sKentec320x240x16_SSD2119                                          
200082ac  g_sMenuGraphPage                                                     
200082ec  g_sMenuSetPage                                                       
2000832c  g_sMenuTypePage                                                      
20007e28  g_sMotorOption                                                       
200084c8  g_sRoot                                                              
20007e78  g_sSetAccel                                                          
20007ec8  g_sSetAdd                                                            
20007f18  g_sSetBack                                                           
20007f68  g_sSetCurrent                                                        
20007fb8  g_sSetMotor                                                          
20008008  g_sSetName                                                           
20008058  g_sSetOption                                                         
200080a8  g_sSetSave                                                           
200080f8  g_sSetSub                                                            
20008148  g_sSetTemp                                                           
20008198  g_sSetValue                                                          
2000836c  g_sSettingPage                                                       
200079fc  gateHwi                                                              
0000ad55  getAcceleration                                                      
0000adb1  getBoardTemp                                                         
0000ae0d  getLight                                                             
00000de5  getMotorLibPWMPeriod                                                 
0000ae69  getMotorTemp                                                         
0000aec5  getPower                                                             
0000d969  getSpeed                                                             
0000e809  getSpeedFloat                                                        
20007a00  glThresholdAccel                                                     
20007a04  glThresholdCurrent                                                   
20007a4c  glThresholdTemp                                                      
2000861c  gpioCallbackFunctions                                                
2000856c  gpioPinConfigs                                                       
20007a0c  graphPageIdentifier                                                  
20007a4e  height                                                               
200079d4  highLimit                                                            
20008698  homeScreenFlag                                                       
00012ce0  i2cTivaHWAttrs                                                       
20007548  i2cTivaObjects                                                       
00007981  initAcceleration                                                     
000087c9  initCurrent                                                          
0000e575  initLEDS                                                             
00008271  initLight                                                            
000089a5  initMotor                                                            
00000e39  initMotorLib                                                         
00000d19  initMotorLibPWM                                                      
000063fd  initSensors                                                          
000085e5  initSettingValues                                                    
00006d3d  initTemp                                                             
200084f5  isDay                                                                
0000650d  ldexp                                                                
0000650d  ldexpl                                                               
0000dd65  ledDayNight                                                          
20007940  lightBuffer                                                          
00005e45  localtime                                                            
200079dc  lowLimit                                                             
0000b5c5  ltoa                                                                 
0000914d  main                                                                 
20008748  main_func_sp                                                         
20007a10  maxGraph                                                             
0000dfd9  memccpy                                                              
00008a41  memcpy                                                               
00009911  memset                                                               
20007a14  minGraph                                                             
000022d9  mktime                                                               
20007a18  motorAccelerationLimit                                               
20007a1c  motorCurrentLimit                                                    
20007688  motorLibPWMObjects                                                   
20007958  motorLibPWMTimerObjects                                              
00012cb4  motorLibPWMTimerTivaHWAttrs                                          
000125f0  motorLibPWMTivaHWAttrs                                               
20007a20  motorSpeedLimit                                                      
20008694  motorState                                                           
20007a57  motorTempAddr                                                        
200079bc  motorTempBuffer                                                      
20007a24  motorTemperatureLimit                                                
20008600  motor_on                                                             
0000e8d9  osi_TaskDisable                                                      
0000e879  osi_start                                                            
200079e4  parmbuf                                                              
2000869c  pointsCount                                                          
20007714  powerBuffer                                                          
200086a0  previousSample                                                       
0000c7c9  removeAllWidgets                                                     
200085e8  rotations                                                            
20007970  rpm_buffer                                                           
200085fc  rpm_index                                                            
200076c0  sContext                                                             
20007a50  s_x                                                                  
20007a52  s_y                                                                  
0000650d  scalbn                                                               
0000650d  scalbnl                                                              
20007a28  semAccelHandle                                                       
200078d4  semAccelStruct                                                       
20007a2c  semLightHandle                                                       
200078f0  semLightStruct                                                       
20007a30  semTempHandle                                                        
2000790c  semTempStruct                                                        
20007a34  sensori2c                                                            
0000d5a9  sensorsFxn                                                           
0000d991  setDesiredSpeed                                                      
00000a91  setDuty                                                              
0000d305  setThresholdAccel                                                    
0000d335  setThresholdCurrent                                                  
0000e2f1  setThresholdTemp                                                     
20007a38  settingsPageIdentifier                                               
0000c41d  setupEEPROM                                                          
00005541  setupSensorsAndGUI                                                   
0000e589  shouldDrawDataClock                                                  
200084f7  shouldDrawDataOnGraph                                                
200084f6  shouldDrawDateTime                                                   
0000bcfd  snprintf                                                             
200085ec  speed_rpm                                                            
0000c849  sprintf                                                              
000053e9  sqrt                                                                 
000053e9  sqrtl                                                                
0000cd29  startMotor                                                           
00000c9f  stopMotor                                                            
0000e309  stopMotor_api                                                        
0000e425  strchr                                                               
0000e59d  strcpy                                                               
0000e5b1  strlen                                                               
0000e829  swiAcceleration                                                      
00002f15  swiCurrent                                                           
0000e839  swiLight                                                             
0000e849  swiTemp                                                              
20007a3c  t1                                                                   
20006ac0  taskAccelStack                                                       
00007715  taskAcceleration                                                     
0000ab81  taskLight                                                            
20006cc0  taskLightStack                                                       
20004360  taskSeStack                                                          
000071f1  taskTemp                                                             
20006ec0  taskTempStack                                                        
20005360  taskUiStack                                                          
20007988  textBuffer                                                           
0001055c  ti_catalog_arm_cortexm4_tiva_ce_Boot_A_mustNotUseEnhancedClockMode__C
00012d1c  ti_catalog_arm_cortexm4_tiva_ce_Boot_Module__diagsEnabled__C         
00012d20  ti_catalog_arm_cortexm4_tiva_ce_Boot_Module__diagsIncluded__C        
00012d24  ti_catalog_arm_cortexm4_tiva_ce_Boot_Module__diagsMask__C            
0001055a  ti_catalog_arm_cortexm4_tiva_ce_Boot_Module__id__C                   
0000e799  ti_catalog_arm_cortexm4_tiva_ce_Boot_init__I                         
0000336d  ti_catalog_arm_cortexm4_tiva_ce_Boot_sysCtlClockFreqSetI__I          
00008c11  ti_catalog_arm_cortexm4_tiva_ce_Boot_sysCtlClockFreqSet__E           
20008548  ti_sysbios_BIOS_Module__state__V                                     
0000e17b  ti_sysbios_BIOS_RtsGateProxy_Handle__label__S                        
0000db31  ti_sysbios_BIOS_RtsGateProxy_Object__delete__S                       
00007e15  ti_sysbios_BIOS_RtsGateProxy_enter__E                                
00007ed5  ti_sysbios_BIOS_RtsGateProxy_leave__E                                
0000ece9  ti_sysbios_BIOS_RtsGateProxy_query__E                                
0000d365  ti_sysbios_BIOS_atExitFunc__I                                        
0000daa1  ti_sysbios_BIOS_errorRaiseHook__I                                    
0000e43b  ti_sysbios_BIOS_exitFunc__I                                          
0000e859  ti_sysbios_BIOS_getCpuFreq__E                                        
0000468b  ti_sysbios_BIOS_nullFunc__I                                          
0000dac5  ti_sysbios_BIOS_registerRTSLock__I                                   
0000dae9  ti_sysbios_BIOS_removeRTSLock__I                                     
0000dda5  ti_sysbios_BIOS_rtsLock__I                                           
0000e321  ti_sysbios_BIOS_rtsUnlock__I                                         
0000e869  ti_sysbios_BIOS_setThreadType__E                                     
0000db0d  ti_sysbios_BIOS_startFunc__I                                         
0000e879  ti_sysbios_BIOS_start__E                                             
200083ac  ti_sysbios_family_arm_lm4_Timer_Module_State_0_device__A             
2000858c  ti_sysbios_family_arm_lm4_Timer_Module_State_0_handles__A            
0000e339  ti_sysbios_family_arm_lm4_Timer_Module__startupDone__F               
0000e339  ti_sysbios_family_arm_lm4_Timer_Module__startupDone__S               
200086a4  ti_sysbios_family_arm_lm4_Timer_Module__state__V                     
0000a809  ti_sysbios_family_arm_lm4_Timer_Module_startup__E                    
200083ec  ti_sysbios_family_arm_lm4_Timer_Object__table__V                     
00012d28  ti_sysbios_family_arm_lm4_Timer_enableFunc__C                        
0000c0d1  ti_sysbios_family_arm_lm4_Timer_enableTimers__I                      
00008539  ti_sysbios_family_arm_lm4_Timer_enableTiva__I                        
0000ea51  ti_sysbios_family_arm_lm4_Timer_getAvailMask__E                      
0000ea61  ti_sysbios_family_arm_lm4_Timer_getMaxTicks__E                       
0000b671  ti_sysbios_family_arm_lm4_Timer_initDevice__I                        
0000c461  ti_sysbios_family_arm_lm4_Timer_isrStub__E                           
0000ec59  ti_sysbios_family_arm_lm4_Timer_masterDisable__I                     
00008f05  ti_sysbios_family_arm_lm4_Timer_masterEnable__I                      
00012d2c  ti_sysbios_family_arm_lm4_Timer_numTimerDevices__C                   
0000bd49  ti_sysbios_family_arm_lm4_Timer_setAvailMask__E                      
00006839  ti_sysbios_family_arm_lm4_Timer_start__E                             
00012d30  ti_sysbios_family_arm_lm4_Timer_startupNeeded__C                     
0000c889  ti_sysbios_family_arm_lm4_Timer_startup__E                           
0000d399  ti_sysbios_family_arm_lm4_Timer_stop__E                              
0000dc81  ti_sysbios_family_arm_lm4_Timer_write__I                             
00012d34  ti_sysbios_family_arm_m3_Hwi_E_NMI__C                                
00012d38  ti_sysbios_family_arm_m3_Hwi_E_alreadyDefined__C                     
00012d3c  ti_sysbios_family_arm_m3_Hwi_E_busFault__C                           
00012d40  ti_sysbios_family_arm_m3_Hwi_E_debugMon__C                           
00012d44  ti_sysbios_family_arm_m3_Hwi_E_hardFault__C                          
00012d48  ti_sysbios_family_arm_m3_Hwi_E_memFault__C                           
00012d4c  ti_sysbios_family_arm_m3_Hwi_E_noIsr__C                              
00012d50  ti_sysbios_family_arm_m3_Hwi_E_reserved__C                           
00012d54  ti_sysbios_family_arm_m3_Hwi_E_svCall__C                             
00012d58  ti_sysbios_family_arm_m3_Hwi_E_usageFault__C                         
0000e147  ti_sysbios_family_arm_m3_Hwi_Handle__label__S                        
0000cfb9  ti_sysbios_family_arm_m3_Hwi_Instance_finalize__E                    
00008e71  ti_sysbios_family_arm_m3_Hwi_Instance_init__E                        
2000861a  ti_sysbios_family_arm_m3_Hwi_Module_State_0_excActive__A             
2000874c  ti_sysbios_family_arm_m3_Hwi_Module_State_0_excContext__A            
20008750  ti_sysbios_family_arm_m3_Hwi_Module_State_0_excStack__A              
00011ce2  ti_sysbios_family_arm_m3_Hwi_Module__id__C                           
200086c4  ti_sysbios_family_arm_m3_Hwi_Module__root__V                         
0000e351  ti_sysbios_family_arm_m3_Hwi_Module__startupDone__F                  
0000e351  ti_sysbios_family_arm_m3_Hwi_Module__startupDone__S                  
20008464  ti_sysbios_family_arm_m3_Hwi_Module__state__V                        
0000ba41  ti_sysbios_family_arm_m3_Hwi_Module_startup__E                       
00012d5c  ti_sysbios_family_arm_m3_Hwi_NUM_INTERRUPTS__C                       
00012a94  ti_sysbios_family_arm_m3_Hwi_Object__DESC__C                         
00012854  ti_sysbios_family_arm_m3_Hwi_Object__PARAMS__C                       
00012d60  ti_sysbios_family_arm_m3_Hwi_Object__count__C                        
00009e49  ti_sysbios_family_arm_m3_Hwi_Object__create__S                       
0000ddc5  ti_sysbios_family_arm_m3_Hwi_Object__delete__S                       
0000dff5  ti_sysbios_family_arm_m3_Hwi_Object__destruct__S                     
0000e5c5  ti_sysbios_family_arm_m3_Hwi_Object__get__S                          
20008634  ti_sysbios_family_arm_m3_Hwi_Object__table__V                        
0000ea6d  ti_sysbios_family_arm_m3_Hwi_Params__init__S                         
00012d64  ti_sysbios_family_arm_m3_Hwi_ccr__C                                  
0000b3c1  ti_sysbios_family_arm_m3_Hwi_construct                               
0000a86d  ti_sysbios_family_arm_m3_Hwi_create                                  
00008f9d  ti_sysbios_family_arm_m3_Hwi_destruct                                
0000ea79  ti_sysbios_family_arm_m3_Hwi_disableFxn__E                           
0000c119  ti_sysbios_family_arm_m3_Hwi_disableInterrupt__E                     
0000a8d1  ti_sysbios_family_arm_m3_Hwi_dispatchC__I                            
20006760  ti_sysbios_family_arm_m3_Hwi_dispatchTable                           
00006e31  ti_sysbios_family_arm_m3_Hwi_dispatch__I                             
0000ec61  ti_sysbios_family_arm_m3_Hwi_doSwiRestore__I                         
0000eca1  ti_sysbios_family_arm_m3_Hwi_doTaskRestore__I                        
0000c161  ti_sysbios_family_arm_m3_Hwi_enableInterrupt__E                      
00004e41  ti_sysbios_family_arm_m3_Hwi_excBusFault__I                          
00007d59  ti_sysbios_family_arm_m3_Hwi_excDebugMon__I                          
00001139  ti_sysbios_family_arm_m3_Hwi_excDumpRegs__I                          
0000dde5  ti_sysbios_family_arm_m3_Hwi_excHandlerAsm__I                        
00012d68  ti_sysbios_family_arm_m3_Hwi_excHandlerFunc__C                       
00003b69  ti_sysbios_family_arm_m3_Hwi_excHandlerMax__I                        
0000de09  ti_sysbios_family_arm_m3_Hwi_excHandler__I                           
00007e19  ti_sysbios_family_arm_m3_Hwi_excHardFault__I                         
00012cfc  ti_sysbios_family_arm_m3_Hwi_excHookFuncs__A                         
00012d6c  ti_sysbios_family_arm_m3_Hwi_excHookFuncs__C                         
00005a89  ti_sysbios_family_arm_m3_Hwi_excMemFault__I                          
0000cff1  ti_sysbios_family_arm_m3_Hwi_excNmi__I                               
0000cd61  ti_sysbios_family_arm_m3_Hwi_excNoIsr__I                             
0000c1a9  ti_sysbios_family_arm_m3_Hwi_excReserved__I                          
0000ca39  ti_sysbios_family_arm_m3_Hwi_excSvCall__I                            
00005129  ti_sysbios_family_arm_m3_Hwi_excUsageFault__I                        
0000c4a9  ti_sysbios_family_arm_m3_Hwi_getStackInfo__E                         
00008f09  ti_sysbios_family_arm_m3_Hwi_initNVIC__E                             
0000b419  ti_sysbios_family_arm_m3_Hwi_initStacks__E                           
00012d70  ti_sysbios_family_arm_m3_Hwi_nullIsrFunc__C                          
e000e000  ti_sysbios_family_arm_m3_Hwi_nvic                                    
0000da2f  ti_sysbios_family_arm_m3_Hwi_pendSV__I                               
00009511  ti_sysbios_family_arm_m3_Hwi_postInit__I                             
00012d74  ti_sysbios_family_arm_m3_Hwi_priGroup__C                             
20000000  ti_sysbios_family_arm_m3_Hwi_ramVectors                              
00000000  ti_sysbios_family_arm_m3_Hwi_resetVectors                            
0000eca9  ti_sysbios_family_arm_m3_Hwi_restoreFxn__E                           
0000da53  ti_sysbios_family_arm_m3_Hwi_return                                  
0000ec69  ti_sysbios_family_arm_m3_Hwi_startup__E                              
0000e5d9  ti_sysbios_family_arm_m3_Hwi_switchFromBootStack__E                  
00009795  ti_sysbios_family_arm_m3_TaskSupport_Module__startupDone__S          
000091d9  ti_sysbios_family_arm_m3_TaskSupport_buildTaskStack                  
0000ea89  ti_sysbios_family_arm_m3_TaskSupport_getStackAlignment__E            
0000e889  ti_sysbios_family_arm_m3_TaskSupport_glue                            
00012d78  ti_sysbios_family_arm_m3_TaskSupport_stackAlignment__C               
0000d3c9  ti_sysbios_family_arm_m3_TaskSupport_start__E                        
0000e369  ti_sysbios_family_arm_m3_TaskSupport_swap__E                         
0000df81  ti_sysbios_family_xxx_Hwi_switchAndRunFunc                           
0000e161  ti_sysbios_gates_GateHwi_Handle__label__S                            
0000ecf9  ti_sysbios_gates_GateHwi_Instance_init__E                            
000129a0  ti_sysbios_gates_GateHwi_Module__FXNS__C                             
200086cc  ti_sysbios_gates_GateHwi_Module__root__V                             
00012ab4  ti_sysbios_gates_GateHwi_Object__DESC__C                             
00012c24  ti_sysbios_gates_GateHwi_Object__PARAMS__C                           
0000d3f9  ti_sysbios_gates_GateHwi_Object__create__S                           
0000de29  ti_sysbios_gates_GateHwi_Object__delete__S                           
20008754  ti_sysbios_gates_GateHwi_Object__table__V                            
0000ea99  ti_sysbios_gates_GateHwi_enter__E                                    
0000ecb1  ti_sysbios_gates_GateHwi_leave__E                                    
0000ece1  ti_sysbios_gates_GateHwi_query__E                                    
0000e17b  ti_sysbios_gates_GateMutex_Handle__label__S                          
00012d7c  ti_sysbios_gates_GateMutex_Instance_State_sem__O                     
0000e899  ti_sysbios_gates_GateMutex_Instance_finalize__E                      
0000e011  ti_sysbios_gates_GateMutex_Instance_init__E                          
000129c4  ti_sysbios_gates_GateMutex_Module__FXNS__C                           
200086d4  ti_sysbios_gates_GateMutex_Module__root__V                           
00012ad4  ti_sysbios_gates_GateMutex_Object__DESC__C                           
00012c3c  ti_sysbios_gates_GateMutex_Object__PARAMS__C                         
0000d429  ti_sysbios_gates_GateMutex_Object__create__S                         
0000db31  ti_sysbios_gates_GateMutex_Object__delete__S                         
2000842c  ti_sysbios_gates_GateMutex_Object__table__V                          
0000d459  ti_sysbios_gates_GateMutex_enter__E                                  
0000e381  ti_sysbios_gates_GateMutex_leave__E                                  
0000ece9  ti_sysbios_gates_GateMutex_query__E                                  
0000e147  ti_sysbios_hal_Hwi_HwiProxy_Handle__label__S                         
0000e351  ti_sysbios_hal_Hwi_HwiProxy_Module__startupDone__S                   
0000e8a9  ti_sysbios_hal_Hwi_HwiProxy_Object__create__S                        
0000ddc5  ti_sysbios_hal_Hwi_HwiProxy_Object__delete__S                        
0000ea6d  ti_sysbios_hal_Hwi_HwiProxy_Params__init__S                          
0000e02d  ti_sysbios_hal_Hwi_HwiProxy_create                                   
00009eb5  ti_sysbios_hal_Hwi_HwiProxy_delete                                   
0000c119  ti_sysbios_hal_Hwi_HwiProxy_disableInterrupt__E                      
0000ea79  ti_sysbios_hal_Hwi_HwiProxy_disable__E                               
0000c161  ti_sysbios_hal_Hwi_HwiProxy_enableInterrupt__E                       
0000c4a9  ti_sysbios_hal_Hwi_HwiProxy_getStackInfo__E                          
0000eca9  ti_sysbios_hal_Hwi_HwiProxy_restore__E                               
0000ec69  ti_sysbios_hal_Hwi_HwiProxy_startup__E                               
0000e5d9  ti_sysbios_hal_Hwi_HwiProxy_switchFromBootStack__E                   
0000ebe1  ti_sysbios_hal_Hwi_Instance_finalize__E                              
0000d9b9  ti_sysbios_hal_Hwi_Instance_init__E                                  
200086dc  ti_sysbios_hal_Hwi_Module__root__V                                   
0000e761  ti_sysbios_hal_Hwi_Module_startup__E                                 
00012af4  ti_sysbios_hal_Hwi_Object__DESC__C                                   
000128b4  ti_sysbios_hal_Hwi_Object__PARAMS__C                                 
0000eaa5  ti_sysbios_hal_Hwi_Params__init__S                                   
0000a935  ti_sysbios_hal_Hwi_create                                            
0000c119  ti_sysbios_hal_Hwi_disableInterrupt__E                               
0000c161  ti_sysbios_hal_Hwi_enableInterrupt__E                                
0000c4a9  ti_sysbios_hal_Hwi_getStackInfo__E                                   
0000d0c1  ti_sysbios_hal_Hwi_initStack                                         
0000ec69  ti_sysbios_hal_Hwi_startup__E                                        
0000e5d9  ti_sysbios_hal_Hwi_switchFromBootStack__E                            
00012d80  ti_sysbios_heaps_HeapMem_E_memory__C                                 
0000e195  ti_sysbios_heaps_HeapMem_Handle__label__S                            
20006360  ti_sysbios_heaps_HeapMem_Instance_State_0_buf__A                     
0000c8c9  ti_sysbios_heaps_HeapMem_Instance_init__E                            
0000e17b  ti_sysbios_heaps_HeapMem_Module_GateProxy_Handle__label__S           
0000db31  ti_sysbios_heaps_HeapMem_Module_GateProxy_Object__delete__S          
0000a805  ti_sysbios_heaps_HeapMem_Module_GateProxy_enter__E                   
0000af7d  ti_sysbios_heaps_HeapMem_Module_GateProxy_leave__E                   
0000ece9  ti_sysbios_heaps_HeapMem_Module_GateProxy_query__E                   
00012930  ti_sysbios_heaps_HeapMem_Module__FXNS__C                             
00012d84  ti_sysbios_heaps_HeapMem_Module__gateObj__C                          
000120b6  ti_sysbios_heaps_HeapMem_Module__id__C                               
200086e4  ti_sysbios_heaps_HeapMem_Module__root__V                             
00012b14  ti_sysbios_heaps_HeapMem_Object__DESC__C                             
000129e8  ti_sysbios_heaps_HeapMem_Object__PARAMS__C                           
00012d88  ti_sysbios_heaps_HeapMem_Object__count__C                            
0000d489  ti_sysbios_heaps_HeapMem_Object__create__S                           
0000de49  ti_sysbios_heaps_HeapMem_Object__delete__S                           
0000e5ed  ti_sysbios_heaps_HeapMem_Object__get__S                              
2000864c  ti_sysbios_heaps_HeapMem_Object__table__V                            
00007571  ti_sysbios_heaps_HeapMem_alloc__E                                    
00009799  ti_sysbios_heaps_HeapMem_free__E                                     
0000bd99  ti_sysbios_heaps_HeapMem_getStats__E                                 
0000ca79  ti_sysbios_heaps_HeapMem_init__I                                     
0000ecb9  ti_sysbios_heaps_HeapMem_isBlocking__E                               
00012d8c  ti_sysbios_heaps_HeapMem_reqAlign__C                                 
0000e049  ti_sysbios_knl_Clock_Instance_finalize__E                            
0000ba91  ti_sysbios_knl_Clock_Instance_init__E                                
00012d90  ti_sysbios_knl_Clock_Module_State_clockQ__O                          
200086ec  ti_sysbios_knl_Clock_Module__root__V                                 
200084f8  ti_sysbios_knl_Clock_Module__state__V                                
0000db59  ti_sysbios_knl_Clock_Module_startup__E                               
00012b34  ti_sysbios_knl_Clock_Object__DESC__C                                 
00012a0c  ti_sysbios_knl_Clock_Object__PARAMS__C                               
0000de69  ti_sysbios_knl_Clock_Object__destruct__S                             
200085ac  ti_sysbios_knl_Clock_Object__table__V                                
0000eab1  ti_sysbios_knl_Clock_Params__init__S                                 
0000e339  ti_sysbios_knl_Clock_TimerProxy_Module__startupDone__S               
0000afdd  ti_sysbios_knl_Clock_TimerProxy_getMaxTicks__E                       
0000c889  ti_sysbios_knl_Clock_TimerProxy_startup__E                           
0000d025  ti_sysbios_knl_Clock_construct                                       
0000b66d  ti_sysbios_knl_Clock_destruct                                        
0000d799  ti_sysbios_knl_Clock_doTick__I                                       
0000ed01  ti_sysbios_knl_Clock_logTick__E                                      
0000db81  ti_sysbios_knl_Clock_start__E                                        
0000ecc1  ti_sysbios_knl_Clock_stop__E                                         
00009a69  ti_sysbios_knl_Clock_workFunc__E                                     
00012d94  ti_sysbios_knl_Idle_funcList__A                                      
00012d04  ti_sysbios_knl_Idle_funcList__C                                      
0000de89  ti_sysbios_knl_Idle_run__E                                           
0000ecc9  ti_sysbios_knl_Queue_Instance_init__E                                
200086f4  ti_sysbios_knl_Queue_Module__root__V                                 
00012b54  ti_sysbios_knl_Queue_Object__DESC__C                                 
00012c54  ti_sysbios_knl_Queue_Object__PARAMS__C                               
0000e065  ti_sysbios_knl_Queue_Object__destruct__S                             
0000eac9  ti_sysbios_knl_Queue_Object__get__S                                  
0000d7c5  ti_sysbios_knl_Queue_construct                                       
0000ba3d  ti_sysbios_knl_Queue_destruct                                        
0000e9b9  ti_sysbios_knl_Queue_empty__E                                        
0000e081  ti_sysbios_knl_Queue_put__E                                          
00012d98  ti_sysbios_knl_Semaphore_Instance_State_pendQ__O                     
0000e8b9  ti_sysbios_knl_Semaphore_Instance_finalize__E                        
0000dba9  ti_sysbios_knl_Semaphore_Instance_init__E                            
200086fc  ti_sysbios_knl_Semaphore_Module__root__V                             
00012b74  ti_sysbios_knl_Semaphore_Object__DESC__C                             
00012a30  ti_sysbios_knl_Semaphore_Object__PARAMS__C                           
0000dea9  ti_sysbios_knl_Semaphore_Object__destruct__S                         
0000ead5  ti_sysbios_knl_Semaphore_Params__init__S                             
0000d4b9  ti_sysbios_knl_Semaphore_construct                                   
0000bd95  ti_sysbios_knl_Semaphore_destruct                                    
0000d4e9  ti_sysbios_knl_Semaphore_pendTimeout__I                              
00005699  ti_sysbios_knl_Semaphore_pend__E                                     
0000a999  ti_sysbios_knl_Semaphore_post__E                                     
0000e1af  ti_sysbios_knl_Swi_Handle__label__S                                  
20007a58  ti_sysbios_knl_Swi_Module_State_0_readyQ__A                          
200085cc  ti_sysbios_knl_Swi_Module__state__V                                  
0000d9e1  ti_sysbios_knl_Swi_Module_startup__E                                 
00012d9c  ti_sysbios_knl_Swi_Object__count__C                                  
0000e601  ti_sysbios_knl_Swi_Object__get__S                                    
20008498  ti_sysbios_knl_Swi_Object__table__V                                  
0000e8c9  ti_sysbios_knl_Swi_disable__E                                        
0000c4f1  ti_sysbios_knl_Swi_post__E                                           
00009eb9  ti_sysbios_knl_Swi_restoreHwi__E                                     
0000cab9  ti_sysbios_knl_Swi_restore__E                                        
0000bde9  ti_sysbios_knl_Swi_runLoop__I                                        
0000af21  ti_sysbios_knl_Swi_run__I                                            
0000af81  ti_sysbios_knl_Swi_schedule__I                                       
0000ecd1  ti_sysbios_knl_Swi_startup__E                                        
0000e1c9  ti_sysbios_knl_Task_Handle__label__S                                 
00007ed9  ti_sysbios_knl_Task_Instance_finalize__E                             
000077e9  ti_sysbios_knl_Task_Instance_init__E                                 
20008758  ti_sysbios_knl_Task_Module_State_0_idleTask__A                       
20007ad8  ti_sysbios_knl_Task_Module_State_0_readyQ__A                         
00012da0  ti_sysbios_knl_Task_Module_State_inactiveQ__O                        
20008704  ti_sysbios_knl_Task_Module__root__V                                  
200081e8  ti_sysbios_knl_Task_Module__state__V                                 
0000afe1  ti_sysbios_knl_Task_Module_startup__E                                
00012b94  ti_sysbios_knl_Task_Object__DESC__C                                  
000127b8  ti_sysbios_knl_Task_Object__PARAMS__C                                
00012da4  ti_sysbios_knl_Task_Object__count__C                                 
0000e9c7  ti_sysbios_knl_Task_Object__get__S                                   
0000eaed  ti_sysbios_knl_Task_Params__init__S                                  
00009795  ti_sysbios_knl_Task_SupportProxy_Module__startupDone__S              
0000ea89  ti_sysbios_knl_Task_SupportProxy_getStackAlignment__E                
0000d3c9  ti_sysbios_knl_Task_SupportProxy_start__E                            
0000e369  ti_sysbios_knl_Task_SupportProxy_swap__E                             
00012da8  ti_sysbios_knl_Task_allBlockedFunc__C                                
0000be39  ti_sysbios_knl_Task_allBlockedFunction__I                            
0000b03d  ti_sysbios_knl_Task_create                                           
00012dac  ti_sysbios_knl_Task_defaultStackHeap__C                              
00012db0  ti_sysbios_knl_Task_defaultStackSize__C                              
0000e8d9  ti_sysbios_knl_Task_disable__E                                       
0000e0a1  ti_sysbios_knl_Task_enter__I                                         
00009ad9  ti_sysbios_knl_Task_exit__E                                          
00012db4  ti_sysbios_knl_Task_numConstructedTasks__C                           
00008fa1  ti_sysbios_knl_Task_postInit__I                                      
0000cd99  ti_sysbios_knl_Task_processVitalTaskFlag__I                          
0000dbd1  ti_sysbios_knl_Task_restoreHwi__E                                    
0000d7f1  ti_sysbios_knl_Task_restore__E                                       
0000be89  ti_sysbios_knl_Task_schedule__I                                      
0000e399  ti_sysbios_knl_Task_sleepTimeout__I                                  
000073b9  ti_sysbios_knl_Task_sleep__E                                         
0000b099  ti_sysbios_knl_Task_startCore__E                                     
0000ecf1  ti_sysbios_knl_Task_startup__E                                       
0000e375  ti_sysbios_knl_Task_swapReturn                                       
0000d519  ti_sysbios_knl_Task_unblockI__E                                      
0000e98d  time                                                                 
20007a40  uartTemp                                                             
00012884  uartTivaHWAttrs                                                      
200070c0  uartTivaObjects                                                      
20007648  uartTivaRingBuffer                                                   
00000ab9  updateMotor                                                          
00008ca9  userInterfaceFxn                                                     
0000e773  wcslen                                                               
20007a54  width                                                                
0000e615  writeToEEPROM                                                        
00012db8  xdc_runtime_Assert_E_assertFailed__C                                 
0000b6c5  xdc_runtime_Assert_raise__I                                          
00012dbc  xdc_runtime_Core_A_initializedParams__C                              
00012dc0  xdc_runtime_Core_Module__diagsEnabled__C                             
00012dc4  xdc_runtime_Core_Module__diagsIncluded__C                            
00012dc8  xdc_runtime_Core_Module__diagsMask__C                                
00012302  xdc_runtime_Core_Module__id__C                                       
0000d059  xdc_runtime_Core_assignLabel__I                                      
0000c34f  xdc_runtime_Core_assignParams__I                                     
000078b5  xdc_runtime_Core_constructObject__I                                  
00006a49  xdc_runtime_Core_createObject__I                                     
0000a47d  xdc_runtime_Core_deleteObject__I                                     
00012dcc  xdc_runtime_Error_E_generic__C                                       
00012dd0  xdc_runtime_Error_E_memory__C                                        
00012dd4  xdc_runtime_Error_Module__diagsEnabled__C                            
00012dd8  xdc_runtime_Error_Module__diagsIncluded__C                           
00012ddc  xdc_runtime_Error_Module__diagsMask__C                               
00012e48  xdc_runtime_Error_Module__loggerDefined__C                           
00012de0  xdc_runtime_Error_Module__loggerFxn8__C                              
00012de4  xdc_runtime_Error_Module__loggerObj__C                               
20008736  xdc_runtime_Error_Module__state__V                                   
0000e3b1  xdc_runtime_Error_check__E                                           
0000bde5  xdc_runtime_Error_getSite__E                                         
0000eaf9  xdc_runtime_Error_init__E                                            
00012e4a  xdc_runtime_Error_maxDepth__C                                        
000061d1  xdc_runtime_Error_policyDefault__E                                   
00012de8  xdc_runtime_Error_policyFxn__C                                       
000120b5  xdc_runtime_Error_policy__C                                          
00009f91  xdc_runtime_Error_print__E                                           
00012dec  xdc_runtime_Error_raiseHook__C                                       
0000e0bd  xdc_runtime_Error_raiseX__E                                          
0000c535  xdc_runtime_Error_setX__E                                            
0000eb05  xdc_runtime_Gate_enterSystem__E                                      
0000e8e9  xdc_runtime_Gate_leaveSystem__E                                      
00012df0  xdc_runtime_IGateProvider_Interface__BASE__C                         
00012df4  xdc_runtime_IHeap_Interface__BASE__C                                 
00012df8  xdc_runtime_IModule_Interface__BASE__C                               
00012dfc  xdc_runtime_Log_L_error__C                                           
0000e161  xdc_runtime_Main_Module_GateProxy_Handle__label__S                   
0000de29  xdc_runtime_Main_Module_GateProxy_Object__delete__S                  
0000ece1  xdc_runtime_Main_Module_GateProxy_query__E                           
00012e4c  xdc_runtime_Main_Module__id__C                                       
0000e195  xdc_runtime_Memory_HeapProxy_Handle__label__S                        
0000de49  xdc_runtime_Memory_HeapProxy_Object__delete__S                       
0000ebeb  xdc_runtime_Memory_HeapProxy_alloc__E                                
0000ebf5  xdc_runtime_Memory_HeapProxy_free__E                                 
00012e4e  xdc_runtime_Memory_Module__id__C                                     
20008760  xdc_runtime_Memory_Module__state__V                                  
00009ffd  xdc_runtime_Memory_alloc__E                                          
0000eb11  xdc_runtime_Memory_calloc__E                                         
00012e00  xdc_runtime_Memory_defaultHeapInstance__C                            
0000e8f9  xdc_runtime_Memory_free__E                                           
0000eb1d  xdc_runtime_Memory_getMaxDefaultTypeAlign__E                         
0000e0d9  xdc_runtime_Memory_valloc__E                                         
2000870c  xdc_runtime_Registry_Module__state__V                                
0000dec9  xdc_runtime_Registry_findById__E                                     
20008714  xdc_runtime_Startup_Module__state__V                                 
00000001  xdc_runtime_Startup__EXECFXN__C                                      
00000001  xdc_runtime_Startup__RESETFXN__C                                     
00012e04  xdc_runtime_Startup_execImpl__C                                      
0000bae1  xdc_runtime_Startup_exec__E                                          
0000e785  xdc_runtime_Startup_exec__I                                          
00012c80  xdc_runtime_Startup_firstFxns__A                                     
00012d0c  xdc_runtime_Startup_firstFxns__C                                     
00012d14  xdc_runtime_Startup_lastFxns__C                                      
00012e08  xdc_runtime_Startup_maxPasses__C                                     
00005e43  xdc_runtime_Startup_reset__I                                         
00012cc4  xdc_runtime_Startup_sfxnRts__A                                       
00012e0c  xdc_runtime_Startup_sfxnRts__C                                       
00012bb4  xdc_runtime_Startup_sfxnTab__A                                       
00012e10  xdc_runtime_Startup_sfxnTab__C                                       
00006c45  xdc_runtime_Startup_startMods__I                                     
200075c8  xdc_runtime_SysMin_Module_State_0_outbuf__A                          
200086b0  xdc_runtime_SysMin_Module__state__V                                  
0000dee9  xdc_runtime_SysMin_Module_startup__E                                 
0000d549  xdc_runtime_SysMin_abort__E                                          
00012e14  xdc_runtime_SysMin_bufSize__C                                        
0000e0f5  xdc_runtime_SysMin_exit__E                                           
00012e50  xdc_runtime_SysMin_flushAtExit__C                                    
0000c579  xdc_runtime_SysMin_flush__E                                          
00012e18  xdc_runtime_SysMin_outputFunc__C                                     
0000dca3  xdc_runtime_SysMin_output__I                                         
0000cdd1  xdc_runtime_SysMin_putch__E                                          
0000e909  xdc_runtime_SysMin_ready__E                                          
0000e161  xdc_runtime_System_Module_GateProxy_Handle__label__S                 
0000de29  xdc_runtime_System_Module_GateProxy_Object__delete__S                
0000be35  xdc_runtime_System_Module_GateProxy_enter__E                         
0000be85  xdc_runtime_System_Module_GateProxy_leave__E                         
0000ece1  xdc_runtime_System_Module_GateProxy_query__E                         
2000871c  xdc_runtime_System_Module_State_0_atexitHandlers__A                  
00012e1c  xdc_runtime_System_Module__gateObj__C                                
20008724  xdc_runtime_System_Module__state__V                                  
0000ecd7  xdc_runtime_System_Module_startup__E                                 
0000d549  xdc_runtime_System_SupportProxy_abort__E                             
0000e0f5  xdc_runtime_System_SupportProxy_exit__E                              
0000c579  xdc_runtime_System_SupportProxy_flush__E                             
0000cdd1  xdc_runtime_System_SupportProxy_putch__E                             
0000e909  xdc_runtime_System_SupportProxy_ready__E                             
00012e20  xdc_runtime_System_abortFxn__C                                       
000077e5  xdc_runtime_System_abortStd__E                                       
0000e111  xdc_runtime_System_abort__E                                          
0000e1e3  xdc_runtime_System_aprintf__E                                        
0000c4a5  xdc_runtime_System_aprintf_va__F                                     
0000ce09  xdc_runtime_System_atexit__E                                         
0000da55  xdc_runtime_System_avprintf__E                                       
00001ca9  xdc_runtime_System_doPrint__I                                        
00012e24  xdc_runtime_System_exitFxn__C                                        
000077e5  xdc_runtime_System_exitStd__E                                        
0000e3c9  xdc_runtime_System_exit__E                                           
00012e28  xdc_runtime_System_extendFxn__C                                      
0000c579  xdc_runtime_System_flush__E                                          
00009d01  xdc_runtime_System_formatNum__I                                      
00012e2c  xdc_runtime_System_maxAtexitHandlers__C                              
00003d5d  xdc_runtime_System_printfExtend__I                                   
0000e1fd  xdc_runtime_System_printf__E                                         
0000c4ed  xdc_runtime_System_printf_va__F                                      
0000d579  xdc_runtime_System_processAtExit__E                                  
0000d89d  xdc_runtime_System_putchar__I                                        
0000dbf5  xdc_runtime_System_vprintf__E                                        
0000e919  xdc_runtime_System_vsnprintf__E                                      
00012e52  xdc_runtime_Text_charCnt__C                                          
0000ed08  xdc_runtime_Text_charTab__A                                          
00012e30  xdc_runtime_Text_charTab__C                                          
0000d81d  xdc_runtime_Text_cordText__E                                         
00012e54  xdc_runtime_Text_isLoaded__C                                         
00012e34  xdc_runtime_Text_nameEmpty__C                                        
00012e38  xdc_runtime_Text_nameStatic__C                                       
00012e3c  xdc_runtime_Text_nameUnknown__C                                      
00012246  xdc_runtime_Text_nodeTab__A                                          
00012e40  xdc_runtime_Text_nodeTab__C                                          
0000d08d  xdc_runtime_Text_printVisFxn__I                                      
0000b0f5  xdc_runtime_Text_putLab__E                                           
00008869  xdc_runtime_Text_putMod__E                                           
00008add  xdc_runtime_Text_putSite__E                                          
00012e56  xdc_runtime_Text_registryModsLastId__C                               
0000e3e1  xdc_runtime_Text_ropeText__E                                         
00012e58  xdc_runtime_Text_unnamedModsLastId__C                                
0000bb31  xdc_runtime_Text_visitRope2__I                                       
00012e44  xdc_runtime_Text_visitRopeFxn__C                                     
0000e929  xdc_runtime_Text_visitRope__I                                        
0000c5bd  xdc_runtime_Text_xprintf__I                                          


GLOBAL SYMBOLS: SORTED BY Symbol Address 

address   name                                                                 
-------   ----                                                                 
00000000  __ASM__                                                              
00000000  ti_sysbios_family_arm_m3_Hwi_resetVectors                            
00000001  xdc_runtime_Startup__EXECFXN__C                                      
00000001  xdc_runtime_Startup__RESETFXN__C                                     
00000041  __TI_printfi                                                         
0000005a  __ISA__                                                              
0000006d  __PLAT__                                                             
0000008e  __TARG__                                                             
000000b4  __TRDR__                                                             
00000a8f  _nop                                                                 
00000a91  setDuty                                                              
00000ab9  updateMotor                                                          
00000c9f  stopMotor                                                            
00000cf9  enableMotor                                                          
00000d07  disableMotor                                                         
00000d19  initMotorLibPWM                                                      
00000de5  getMotorLibPWMPeriod                                                 
00000e39  initMotorLib                                                         
00001135  I2CMasterControl                                                     
00001139  ti_sysbios_family_arm_m3_Hwi_excDumpRegs__I                          
00001ca9  xdc_runtime_System_doPrint__I                                        
000022d9  __mktime32                                                           
000022d9  mktime                                                               
000027e9  PinoutSet                                                            
00002cbd  GrFontGlyphRender                                                    
00002f13  __aeabi_idiv0                                                        
00002f13  __aeabi_ldiv0                                                        
00002f15  swiCurrent                                                           
00003161  UARTTiva_open                                                        
0000336d  ti_catalog_arm_cortexm4_tiva_ce_Boot_sysCtlClockFreqSetI__I          
00003571  SysCtlClockFreqSet                                                   
00003771  exp2                                                                 
00003771  exp2l                                                                
00003b69  ti_sysbios_family_arm_m3_Hwi_excHandlerMax__I                        
00003d5d  xdc_runtime_System_printfExtend__I                                   
00003f45  Kentec320x240x16_SSD2119Init                                         
00004000  __STACK_SIZE                                                         
000044d5  __aeabi_dsub                                                         
000044df  __aeabi_dadd                                                         
0000468b  ti_sysbios_BIOS_nullFunc__I                                          
0000468d  UserInterfaceInit                                                    
00004b4d  TouchScreenIntHandler                                                
00004e3b  GPIOIntClear                                                         
00004e41  ti_sysbios_family_arm_m3_Hwi_excBusFault__I                          
00004fb5  PWMTiva_open                                                         
00005125  I2CMasterDataGet                                                     
00005129  ti_sysbios_family_arm_m3_Hwi_excUsageFault__I                        
0000528d  checkSpeedSwi                                                        
000053e9  sqrt                                                                 
000053e9  sqrtl                                                                
00005541  setupSensorsAndGUI                                                   
00005695  I2CMasterDataPut                                                     
00005699  ti_sysbios_knl_Semaphore_pend__E                                     
000057ed  GPIO_setConfig                                                       
0000593d  BMI160GetAccelData                                                   
00005a89  ti_sysbios_family_arm_m3_Hwi_excMemFault__I                          
00005d0d  __aeabi_ddiv                                                         
00005e43  xdc_runtime_Startup_reset__I                                         
00005e45  __localtime32                                                        
00005e45  localtime                                                            
00005f79  GPIOPadConfigSet                                                     
000061d1  xdc_runtime_Error_policyDefault__E                                   
000062e9  PWMTimerTiva_open                                                    
000063fd  initSensors                                                          
0000650d  ldexp                                                                
0000650d  ldexpl                                                               
0000650d  scalbn                                                               
0000650d  scalbnl                                                              
00006729  TouchScreenInit                                                      
00006835  UARTIntClear                                                         
00006839  ti_sysbios_family_arm_lm4_Timer_start__E                             
00006941  GrLineDraw                                                           
00006a49  xdc_runtime_Core_createObject__I                                     
00006b49  __aeabi_dmul                                                         
00006c45  xdc_runtime_Startup_startMods__I                                     
00006d3d  initTemp                                                             
00006e31  ti_sysbios_family_arm_m3_Hwi_dispatch__I                             
00007017  PWMTiva_setDuty                                                      
00007109  WidgetMessageQueueAdd                                                
000071f1  taskTemp                                                             
000072d5  I2CTiva_open                                                         
000073b5  WidgetDefaultMsgProc                                                 
000073b9  ti_sysbios_knl_Task_sleep__E                                         
0000756b  GPIOPinRead                                                          
00007571  ti_sysbios_heaps_HeapMem_alloc__E                                    
00007645  drawDayNight                                                         
00007715  taskAcceleration                                                     
000077e5  C$$EXIT                                                              
000077e5  abort                                                                
000077e5  xdc_runtime_System_abortStd__E                                       
000077e5  xdc_runtime_System_exitStd__E                                        
000077e9  ti_sysbios_knl_Task_Instance_init__E                                 
000078b5  xdc_runtime_Core_constructObject__I                                  
00007981  initAcceleration                                                     
00007b11  EEPROMProgram                                                        
00007bd5  GrDefaultStringRenderer                                              
00007d59  ti_sysbios_family_arm_m3_Hwi_excDebugMon__I                          
00007e15  ti_sysbios_BIOS_RtsGateProxy_enter__E                                
00007e19  ti_sysbios_family_arm_m3_Hwi_excHardFault__I                         
00007ed5  ti_sysbios_BIOS_RtsGateProxy_leave__E                                
00007ed9  ti_sysbios_knl_Task_Instance_finalize__E                             
00007f95  EK_TM4C1294XL_initGeneral                                            
00008105  PWMTimerTiva_setDuty                                                 
000081bd  WidgetMessageSendPostOrder                                           
00008271  initLight                                                            
000083d7  BMI160Init                                                           
00008533  GPIOPinWrite                                                         
00008539  ti_sysbios_family_arm_lm4_Timer_enableTiva__I                        
000085e5  initSettingValues                                                    
00008689  DrawDateTime                                                         
00008729  __TI_auto_init                                                       
000087c9  initCurrent                                                          
00008869  xdc_runtime_Text_putMod__E                                           
000089a5  initMotor                                                            
00008a41  __aeabi_memcpy                                                       
00008a41  __aeabi_memcpy4                                                      
00008a41  __aeabi_memcpy8                                                      
00008a41  memcpy                                                               
00008add  xdc_runtime_Text_putSite__E                                          
00008b77  UARTTiva_readPolling                                                 
00008c11  ti_catalog_arm_cortexm4_tiva_ce_Boot_sysCtlClockFreqSet__E           
00008ca9  userInterfaceFxn                                                     
00008d41  __aeabi_uldivmod                                                     
00008dd7  UARTTiva_write                                                       
00008e6b  GrContextFontSet                                                     
00008e71  ti_sysbios_family_arm_m3_Hwi_Instance_init__E                        
00008f05  ti_sysbios_family_arm_lm4_Timer_masterEnable__I                      
00008f09  ti_sysbios_family_arm_m3_Hwi_initNVIC__E                             
00008f9d  ti_sysbios_family_arm_m3_Hwi_destruct                                
00008fa1  ti_sysbios_knl_Task_postInit__I                                      
00009035  GPIO_init                                                            
000090c1  UARTTiva_control                                                     
0000914d  main                                                                 
000091d9  ti_sysbios_family_arm_m3_TaskSupport_buildTaskStack                  
000092f1  PWMTiva_control                                                      
00009379  GrRectFill                                                           
000093ff  __aeabi_cdcmpeq                                                      
000093ff  __aeabi_cdcmple                                                      
00009485  __aeabi_cdrcmple                                                     
0000950b  I2CMasterIntDisable                                                  
00009511  ti_sysbios_family_arm_m3_Hwi_postInit__I                             
00009699  I2CTiva_transfer                                                     
00009795  ti_sysbios_family_arm_m3_TaskSupport_Module__startupDone__S          
00009795  ti_sysbios_knl_Task_SupportProxy_Module__startupDone__S              
00009799  ti_sysbios_heaps_HeapMem_free__E                                     
00009815  ADCSequenceStepConfigure                                             
00009909  __aeabi_memclr                                                       
00009909  __aeabi_memclr4                                                      
00009909  __aeabi_memclr8                                                      
0000990b  __aeabi_memset                                                       
0000990b  __aeabi_memset4                                                      
0000990b  __aeabi_memset8                                                      
00009911  memset                                                               
00009985  DrawSettingsParameters                                               
000099f9  OPT3001Convert                                                       
00009a69  ti_sysbios_knl_Clock_workFunc__E                                     
00009ad9  ti_sysbios_knl_Task_exit__E                                          
00009b49  TMP107WaitForEcho                                                    
00009c25  __aeabi_d2f                                                          
00009c93  __aeabi_ldivmod                                                      
00009d01  xdc_runtime_System_formatNum__I                                      
00009d71  PWMTimerTiva_control                                                 
00009ddd  asctime                                                              
00009e49  ti_sysbios_family_arm_m3_Hwi_Object__create__S                       
00009eb5  ti_sysbios_hal_Hwi_HwiProxy_delete                                   
00009eb9  ti_sysbios_knl_Swi_restoreHwi__E                                     
00009f91  xdc_runtime_Error_print__E                                           
00009ffd  xdc_runtime_Memory_alloc__E                                          
0000a069  GrStringWidthGet                                                     
0000a0d3  PWMTiva_close                                                        
0000a13d  TMP107InitUart                                                       
0000a1a9  GrContextInit                                                        
0000a211  IntEnable                                                            
0000a349  __TI_decompress_lzss                                                 
0000a3b1  GrRectDraw                                                           
0000a417  OPT3001ReadLight                                                     
0000a47d  xdc_runtime_Core_deleteObject__I                                     
0000a611  GPIO_hwiIntFxn                                                       
0000a675  OPT3001Test                                                          
0000a6d9  WidgetMessageQueueProcess                                            
0000a73d  eStopGUI                                                             
0000a7a1  frexp                                                                
0000a7a1  frexpl                                                               
0000a805  ti_sysbios_heaps_HeapMem_Module_GateProxy_enter__E                   
0000a809  ti_sysbios_family_arm_lm4_Timer_Module_startup__E                    
0000a86d  ti_sysbios_family_arm_m3_Hwi_create                                  
0000a8d1  ti_sysbios_family_arm_m3_Hwi_dispatchC__I                            
0000a935  ti_sysbios_hal_Hwi_create                                            
0000a999  ti_sysbios_knl_Semaphore_post__E                                     
0000a9fd  GrContextClipRegionSet                                               
0000aac1  TimerConfigure                                                       
0000ab81  taskLight                                                            
0000abe1  TMP107Init                                                           
0000ac9d  WidgetMessageSendPreOrder                                            
0000ad55  getAcceleration                                                      
0000adb1  getBoardTemp                                                         
0000ae0d  getLight                                                             
0000ae69  getMotorTemp                                                         
0000aec5  getPower                                                             
0000af21  ti_sysbios_knl_Swi_run__I                                            
0000af7d  ti_sysbios_heaps_HeapMem_Module_GateProxy_leave__E                   
0000af81  ti_sysbios_knl_Swi_schedule__I                                       
0000afdd  ti_sysbios_knl_Clock_TimerProxy_getMaxTicks__E                       
0000afe1  ti_sysbios_knl_Task_Module_startup__E                                
0000b03d  ti_sysbios_knl_Task_create                                           
0000b099  ti_sysbios_knl_Task_startCore__E                                     
0000b0f5  xdc_runtime_Text_putLab__E                                           
0000b1ab  TMP107Decode5bitAddress                                              
0000b205  TMP107Encode5bitAddress                                              
0000b261  _c_int00                                                             
0000b311  HOSTwrite                                                            
0000b369  TimerControlTrigger                                                  
0000b3c1  ti_sysbios_family_arm_m3_Hwi_construct                               
0000b419  ti_sysbios_family_arm_m3_Hwi_initStacks__E                           
0000b471  GPIOIntTypeSet                                                       
0000b51d  EK_TM4C1294XL_initUART                                               
0000b5c5  ltoa                                                                 
0000b66d  ti_sysbios_knl_Clock_destruct                                        
0000b671  ti_sysbios_family_arm_lm4_Timer_initDevice__I                        
0000b6c5  xdc_runtime_Assert_raise__I                                          
0000b719  TMP107SetConfig                                                      
0000b7bd  ADCSequenceConfigure                                                 
0000b80d  GPIO_setCallback                                                     
0000b85d  GPIO_write                                                           
0000b8ad  OPT3001WriteI2C                                                      
0000b8fd  SysCtlPeripheralReset                                                
0000b94d  TMP107LastDevicePoll                                                 
0000b99d  UARTTiva_writeCancel                                                 
0000ba3d  ti_sysbios_knl_Queue_destruct                                        
0000ba41  ti_sysbios_family_arm_m3_Hwi_Module_startup__E                       
0000ba91  ti_sysbios_knl_Clock_Instance_init__E                                
0000bae1  xdc_runtime_Startup_exec__E                                          
0000bb31  xdc_runtime_Text_visitRope2__I                                       
0000bb81  I2CMasterInitExpClk                                                  
0000bbcd  UARTTiva_close                                                       
0000bc19  WidgetRemove                                                         
0000bc65  atoi                                                                 
0000bcb1  copy_in                                                              
0000bcfd  snprintf                                                             
0000bd49  ti_sysbios_family_arm_lm4_Timer_setAvailMask__E                      
0000bd95  ti_sysbios_knl_Semaphore_destruct                                    
0000bd99  ti_sysbios_heaps_HeapMem_getStats__E                                 
0000bde5  xdc_runtime_Error_getSite__E                                         
0000bde9  ti_sysbios_knl_Swi_runLoop__I                                        
0000be35  xdc_runtime_System_Module_GateProxy_enter__E                         
0000be39  ti_sysbios_knl_Task_allBlockedFunction__I                            
0000be85  xdc_runtime_System_Module_GateProxy_leave__E                         
0000be89  ti_sysbios_knl_Task_schedule__I                                      
0000bed5  PWMTimerTiva_close                                                   
0000bf69  BMI160WriteI2C                                                       
0000bfb1  GPIOPinConfigure                                                     
0000bff9  HOSTtime                                                             
0000c089  __aeabi_d2iz                                                         
0000c0d1  ti_sysbios_family_arm_lm4_Timer_enableTimers__I                      
0000c119  ti_sysbios_family_arm_m3_Hwi_disableInterrupt__E                     
0000c119  ti_sysbios_hal_Hwi_HwiProxy_disableInterrupt__E                      
0000c119  ti_sysbios_hal_Hwi_disableInterrupt__E                               
0000c161  ti_sysbios_family_arm_m3_Hwi_enableInterrupt__E                      
0000c161  ti_sysbios_hal_Hwi_HwiProxy_enableInterrupt__E                       
0000c161  ti_sysbios_hal_Hwi_enableInterrupt__E                                
0000c1a9  ti_sysbios_family_arm_m3_Hwi_excReserved__I                          
0000c1f1  GrLineDrawH                                                          
0000c237  GrLineDrawV                                                          
0000c2c3  RingBuf_put                                                          
0000c309  UARTConfigSetExpClk                                                  
0000c34f  xdc_runtime_Core_assignParams__I                                     
0000c395  BMI160InterruptThreshold                                             
0000c3d9  __aeabi_d2uiz                                                        
0000c41d  setupEEPROM                                                          
0000c461  ti_sysbios_family_arm_lm4_Timer_isrStub__E                           
0000c4a5  xdc_runtime_System_aprintf_va__F                                     
0000c4a9  ti_sysbios_family_arm_m3_Hwi_getStackInfo__E                         
0000c4a9  ti_sysbios_hal_Hwi_HwiProxy_getStackInfo__E                          
0000c4a9  ti_sysbios_hal_Hwi_getStackInfo__E                                   
0000c4ed  xdc_runtime_System_printf_va__F                                      
0000c4f1  ti_sysbios_knl_Swi_post__E                                           
0000c535  xdc_runtime_Error_setX__E                                            
0000c579  xdc_runtime_SysMin_flush__E                                          
0000c579  xdc_runtime_System_SupportProxy_flush__E                             
0000c579  xdc_runtime_System_flush__E                                          
0000c5bd  xdc_runtime_Text_xprintf__I                                          
0000c601  BMI160ReadI2C                                                        
0000c685  UARTTiva_writePolling                                                
0000c6c9  EEPROMInit                                                           
0000c709  OPT3001ReadI2C                                                       
0000c749  RingBuf_get                                                          
0000c789  UARTTiva_read                                                        
0000c7c9  removeAllWidgets                                                     
0000c809  __aeabi_uidiv                                                        
0000c809  __aeabi_uidivmod                                                     
0000c849  sprintf                                                              
0000c889  ti_sysbios_family_arm_lm4_Timer_startup__E                           
0000c889  ti_sysbios_knl_Clock_TimerProxy_startup__E                           
0000c8c9  ti_sysbios_heaps_HeapMem_Instance_init__E                            
0000c949  EK_TM4C1294XL_initI2C                                                
0000c985  SSIConfigSetExpClk                                                   
0000c9c1  TMP107DecodeTemperatureResult                                        
0000ca39  ti_sysbios_family_arm_m3_Hwi_excSvCall__I                            
0000ca79  ti_sysbios_heaps_HeapMem_init__I                                     
0000cab9  ti_sysbios_knl_Swi_restore__E                                        
0000cba1  EEPROMRead                                                           
0000cbd9  I2C_init                                                             
0000cc11  PWM_init                                                             
0000cc49  SysCtlPeripheralReady                                                
0000cc81  UART_init                                                            
0000ccb9  __TI_writemsg                                                        
0000cce7  C$$IO$$                                                              
0000ccf1  __aeabi_f2d                                                          
0000cd29  startMotor                                                           
0000cd61  ti_sysbios_family_arm_m3_Hwi_excNoIsr__I                             
0000cd99  ti_sysbios_knl_Task_processVitalTaskFlag__I                          
0000cdd1  xdc_runtime_SysMin_putch__E                                          
0000cdd1  xdc_runtime_System_SupportProxy_putch__E                             
0000ce09  xdc_runtime_System_atexit__E                                         
0000ce77  I2CTiva_close                                                        
0000cead  UARTTiva_readCancel                                                  
0000cee5  SysCtlPeripheralEnable                                               
0000cf4d  __TI_readmsg                                                         
0000cfb9  ti_sysbios_family_arm_m3_Hwi_Instance_finalize__E                    
0000cff1  ti_sysbios_family_arm_m3_Hwi_excNmi__I                               
0000d025  ti_sysbios_knl_Clock_construct                                       
0000d059  xdc_runtime_Core_assignLabel__I                                      
0000d08d  xdc_runtime_Text_printVisFxn__I                                      
0000d0c1  ti_sysbios_hal_Hwi_initStack                                         
0000d0f5  GPIO_enableInt                                                       
0000d125  GPIO_read                                                            
0000d155  I2C_open                                                             
0000d185  PWMTiva_init                                                         
0000d1b5  PWM_open                                                             
0000d1e5  UART_open                                                            
0000d305  setThresholdAccel                                                    
0000d335  setThresholdCurrent                                                  
0000d365  ti_sysbios_BIOS_atExitFunc__I                                        
0000d399  ti_sysbios_family_arm_lm4_Timer_stop__E                              
0000d3c9  ti_sysbios_family_arm_m3_TaskSupport_start__E                        
0000d3c9  ti_sysbios_knl_Task_SupportProxy_start__E                            
0000d3f9  ti_sysbios_gates_GateHwi_Object__create__S                           
0000d429  ti_sysbios_gates_GateMutex_Object__create__S                         
0000d459  ti_sysbios_gates_GateMutex_enter__E                                  
0000d489  ti_sysbios_heaps_HeapMem_Object__create__S                           
0000d4b9  ti_sysbios_knl_Semaphore_construct                                   
0000d4e9  ti_sysbios_knl_Semaphore_pendTimeout__I                              
0000d519  ti_sysbios_knl_Task_unblockI__E                                      
0000d549  xdc_runtime_SysMin_abort__E                                          
0000d549  xdc_runtime_System_SupportProxy_abort__E                             
0000d579  xdc_runtime_System_processAtExit__E                                  
0000d5a9  sensorsFxn                                                           
0000d5d9  ADCIntStatus                                                         
0000d607  GrStringNextCharGet                                                  
0000d635  OPT3001Enable                                                        
0000d663  __aeabi_i2d                                                          
0000d6e9  GrFontBaselineGet                                                    
0000d715  GrFontHeightGet                                                      
0000d799  ti_sysbios_knl_Clock_doTick__I                                       
0000d7c5  ti_sysbios_knl_Queue_construct                                       
0000d7f1  ti_sysbios_knl_Task_restore__E                                       
0000d81d  xdc_runtime_Text_cordText__E                                         
0000d849  GPIODirModeSet                                                       
0000d89d  xdc_runtime_System_putchar__I                                        
0000d8ef  RectangularButtonMsgProc                                             
0000d969  getSpeed                                                             
0000d991  setDesiredSpeed                                                      
0000d9b9  ti_sysbios_hal_Hwi_Instance_init__E                                  
0000d9e1  ti_sysbios_knl_Swi_Module_startup__E                                 
0000da09  GrFontInfoGet                                                        
0000da2f  ti_sysbios_family_arm_m3_Hwi_pendSV__I                               
0000da53  ti_sysbios_family_arm_m3_Hwi_return                                  
0000da55  xdc_runtime_System_avprintf__E                                       
0000da7b  WidgetAdd                                                            
0000daa1  ti_sysbios_BIOS_errorRaiseHook__I                                    
0000dac5  ti_sysbios_BIOS_registerRTSLock__I                                   
0000dae9  ti_sysbios_BIOS_removeRTSLock__I                                     
0000db0d  ti_sysbios_BIOS_startFunc__I                                         
0000db31  ti_sysbios_BIOS_RtsGateProxy_Object__delete__S                       
0000db31  ti_sysbios_gates_GateMutex_Object__delete__S                         
0000db31  ti_sysbios_heaps_HeapMem_Module_GateProxy_Object__delete__S          
0000db59  ti_sysbios_knl_Clock_Module_startup__E                               
0000db81  ti_sysbios_knl_Clock_start__E                                        
0000dba9  ti_sysbios_knl_Semaphore_Instance_init__E                            
0000dbd1  ti_sysbios_knl_Task_restoreHwi__E                                    
0000dbf5  xdc_runtime_System_vprintf__E                                        
0000dc19  GrFontGlyphDataGet                                                   
0000dc3b  PWMGenConfigure                                                      
0000dc5d  PWMTiva_getPeriodCounts                                              
0000dc81  ti_sysbios_family_arm_lm4_Timer_write__I                             
0000dca3  xdc_runtime_SysMin_output__I                                         
0000dcc5  ClockFxn                                                             
0000dce5  UARTDisable                                                          
0000dd45  eStopMotor                                                           
0000dd65  ledDayNight                                                          
0000dd85  __aeabi_ui2d                                                         
0000dda5  ti_sysbios_BIOS_rtsLock__I                                           
0000ddc5  ti_sysbios_family_arm_m3_Hwi_Object__delete__S                       
0000ddc5  ti_sysbios_hal_Hwi_HwiProxy_Object__delete__S                        
0000dde5  ti_sysbios_family_arm_m3_Hwi_excHandlerAsm__I                        
0000de09  ti_sysbios_family_arm_m3_Hwi_excHandler__I                           
0000de29  ti_sysbios_gates_GateHwi_Object__delete__S                           
0000de29  xdc_runtime_Main_Module_GateProxy_Object__delete__S                  
0000de29  xdc_runtime_System_Module_GateProxy_Object__delete__S                
0000de49  ti_sysbios_heaps_HeapMem_Object__delete__S                           
0000de49  xdc_runtime_Memory_HeapProxy_Object__delete__S                       
0000de69  ti_sysbios_knl_Clock_Object__destruct__S                             
0000de89  ti_sysbios_knl_Idle_run__E                                           
0000dea9  ti_sysbios_knl_Semaphore_Object__destruct__S                         
0000dec9  xdc_runtime_Registry_findById__E                                     
0000dee9  xdc_runtime_SysMin_Module_startup__E                                 
0000df09  ADCSequenceDataGet                                                   
0000df27  GrFontCodepageGet                                                    
0000df45  PWMPulseWidthSet                                                     
0000df63  PWMTiva_getPeriodMicroSecs                                           
0000df81  ti_sysbios_family_xxx_Hwi_switchAndRunFunc                           
0000dfa1  WidgetPointerMessage                                                 
0000dfd9  memccpy                                                              
0000dff5  ti_sysbios_family_arm_m3_Hwi_Object__destruct__S                     
0000e011  ti_sysbios_gates_GateMutex_Instance_init__E                          
0000e02d  ti_sysbios_hal_Hwi_HwiProxy_create                                   
0000e049  ti_sysbios_knl_Clock_Instance_finalize__E                            
0000e065  ti_sysbios_knl_Queue_Object__destruct__S                             
0000e081  ti_sysbios_knl_Queue_put__E                                          
0000e0a1  ti_sysbios_knl_Task_enter__I                                         
0000e0bd  xdc_runtime_Error_raiseX__E                                          
0000e0d9  xdc_runtime_Memory_valloc__E                                         
0000e0f5  xdc_runtime_SysMin_exit__E                                           
0000e0f5  xdc_runtime_System_SupportProxy_exit__E                              
0000e111  xdc_runtime_System_abort__E                                          
0000e12d  copysign                                                             
0000e12d  copysignl                                                            
0000e147  ti_sysbios_family_arm_m3_Hwi_Handle__label__S                        
0000e147  ti_sysbios_hal_Hwi_HwiProxy_Handle__label__S                         
0000e161  ti_sysbios_gates_GateHwi_Handle__label__S                            
0000e161  xdc_runtime_Main_Module_GateProxy_Handle__label__S                   
0000e161  xdc_runtime_System_Module_GateProxy_Handle__label__S                 
0000e17b  ti_sysbios_BIOS_RtsGateProxy_Handle__label__S                        
0000e17b  ti_sysbios_gates_GateMutex_Handle__label__S                          
0000e17b  ti_sysbios_heaps_HeapMem_Module_GateProxy_Handle__label__S           
0000e195  ti_sysbios_heaps_HeapMem_Handle__label__S                            
0000e195  xdc_runtime_Memory_HeapProxy_Handle__label__S                        
0000e1af  ti_sysbios_knl_Swi_Handle__label__S                                  
0000e1c9  ti_sysbios_knl_Task_Handle__label__S                                 
0000e1e3  xdc_runtime_System_aprintf__E                                        
0000e1fd  xdc_runtime_System_printf__E                                         
0000e217  ADCProcessorTrigger                                                  
0000e22f  GPIOPinTypeGPIOOutput                                                
0000e247  TMP107Transmit                                                       
0000e25f  TimerControlLevel                                                    
0000e279  TimerDisable                                                         
0000e291  UART_Params_init                                                     
0000e2a9  _args_main                                                           
0000e2f1  setThresholdTemp                                                     
0000e309  stopMotor_api                                                        
0000e321  ti_sysbios_BIOS_rtsUnlock__I                                         
0000e339  ti_sysbios_family_arm_lm4_Timer_Module__startupDone__F               
0000e339  ti_sysbios_family_arm_lm4_Timer_Module__startupDone__S               
0000e339  ti_sysbios_knl_Clock_TimerProxy_Module__startupDone__S               
0000e351  ti_sysbios_family_arm_m3_Hwi_Module__startupDone__F                  
0000e351  ti_sysbios_family_arm_m3_Hwi_Module__startupDone__S                  
0000e351  ti_sysbios_hal_Hwi_HwiProxy_Module__startupDone__S                   
0000e369  ti_sysbios_family_arm_m3_TaskSupport_swap__E                         
0000e369  ti_sysbios_knl_Task_SupportProxy_swap__E                             
0000e375  ti_sysbios_knl_Task_swapReturn                                       
0000e381  ti_sysbios_gates_GateMutex_leave__E                                  
0000e399  ti_sysbios_knl_Task_sleepTimeout__I                                  
0000e3b1  xdc_runtime_Error_check__E                                           
0000e3c9  xdc_runtime_System_exit__E                                           
0000e3e1  xdc_runtime_Text_ropeText__E                                         
0000e3f9  GrStringDraw                                                         
0000e40f  I2CMasterErr                                                         
0000e425  strchr                                                               
0000e43b  ti_sysbios_BIOS_exitFunc__I                                          
0000e4d5  CanvasMsgProc                                                        
0000e511  PWMClockSet                                                          
0000e525  SysCtlPWMClockSet                                                    
0000e539  TouchScreenCallbackSet                                               
0000e54d  UARTEnable                                                           
0000e561  WidgetMutexGet                                                       
0000e575  initLEDS                                                             
0000e589  shouldDrawDataClock                                                  
0000e59d  strcpy                                                               
0000e5b1  strlen                                                               
0000e5c5  ti_sysbios_family_arm_m3_Hwi_Object__get__S                          
0000e5d9  ti_sysbios_family_arm_m3_Hwi_switchFromBootStack__E                  
0000e5d9  ti_sysbios_hal_Hwi_HwiProxy_switchFromBootStack__E                   
0000e5d9  ti_sysbios_hal_Hwi_switchFromBootStack__E                            
0000e5ed  ti_sysbios_heaps_HeapMem_Object__get__S                              
0000e601  ti_sysbios_knl_Swi_Object__get__S                                    
0000e615  writeToEEPROM                                                        
0000e629  GPIOPinTypeADC                                                       
0000e63b  GPIOPinTypeEthernetLED                                               
0000e64d  GPIOPinTypeI2C                                                       
0000e65f  GPIOPinTypeI2CSCL                                                    
0000e671  GPIOPinTypePWM                                                       
0000e683  GPIOPinTypeSSI                                                       
0000e695  GPIOPinTypeTimer                                                     
0000e6a7  GPIOPinTypeUART                                                      
0000e6b9  PWMGenPeriodGet                                                      
0000e6cb  PWMOutputInvert                                                      
0000e6dd  PWMOutputState                                                       
0000e6ef  RingBuf_construct                                                    
0000e701  SSIDataGetNonBlocking                                                
0000e713  TimerLoadSet                                                         
0000e725  TimerMatchSet                                                        
0000e737  TimerPrescaleMatchSet                                                
0000e749  TimerPrescaleSet                                                     
0000e75b  I2CMasterIntEnable                                                   
0000e761  ti_sysbios_hal_Hwi_Module_startup__E                                 
0000e773  wcslen                                                               
0000e785  xdc_runtime_Startup_exec__I                                          
0000e799  ti_catalog_arm_cortexm4_tiva_ce_Boot_init__I                         
0000e7a9  ADCIntEnable                                                         
0000e7b9  I2C_Params_init                                                      
0000e7c9  IntMasterEnable                                                      
0000e7d9  PWMGenPeriodSet                                                      
0000e7e9  PWM_Params_init                                                      
0000e809  getSpeedFloat                                                        
0000e829  swiAcceleration                                                      
0000e839  swiLight                                                             
0000e849  swiTemp                                                              
0000e859  ti_sysbios_BIOS_getCpuFreq__E                                        
0000e869  ti_sysbios_BIOS_setThreadType__E                                     
0000e879  osi_start                                                            
0000e879  ti_sysbios_BIOS_start__E                                             
0000e889  ti_sysbios_family_arm_m3_TaskSupport_glue                            
0000e899  ti_sysbios_gates_GateMutex_Instance_finalize__E                      
0000e8a9  ti_sysbios_hal_Hwi_HwiProxy_Object__create__S                        
0000e8b9  ti_sysbios_knl_Semaphore_Instance_finalize__E                        
0000e8c9  ti_sysbios_knl_Swi_disable__E                                        
0000e8d9  osi_TaskDisable                                                      
0000e8d9  ti_sysbios_knl_Task_disable__E                                       
0000e8e9  xdc_runtime_Gate_leaveSystem__E                                      
0000e8f9  xdc_runtime_Memory_free__E                                           
0000e909  xdc_runtime_SysMin_ready__E                                          
0000e909  xdc_runtime_System_SupportProxy_ready__E                             
0000e919  xdc_runtime_System_vsnprintf__E                                      
0000e929  xdc_runtime_Text_visitRope__I                                        
0000e939  ADCSequenceEnable                                                    
0000e947  GPIOIntStatus                                                        
0000e955  GrImageDraw                                                          
0000e963  TimerEnable                                                          
0000e971  UARTCharGetNonBlocking                                               
0000e97f  UARTCharPutNonBlocking                                               
0000e98d  __time32                                                             
0000e98d  time                                                                 
0000e99b  callbackTriggerAccelEStop                                            
0000e9a9  __TI_decompress_none                                                 
0000e9b9  ti_sysbios_knl_Queue_empty__E                                        
0000e9c7  ti_sysbios_knl_Task_Object__get__S                                   
0000e9d5  CPUcpsie                                                             
0000e9e1  GPIOIntEnable                                                        
0000e9ed  PWMGenDisable                                                        
0000e9f9  PWMGenEnable                                                         
0000ea05  RingBuf_peek                                                         
0000ea11  UARTFlowControlSet                                                   
0000ea1d  UARTTiva_init                                                        
0000ea29  _register_lock                                                       
0000ea35  _register_unlock                                                     
0000ea41  __TI_zero_init                                                       
0000ea51  ti_sysbios_family_arm_lm4_Timer_getAvailMask__E                      
0000ea61  ti_sysbios_family_arm_lm4_Timer_getMaxTicks__E                       
0000ea6d  ti_sysbios_family_arm_m3_Hwi_Params__init__S                         
0000ea6d  ti_sysbios_hal_Hwi_HwiProxy_Params__init__S                          
0000ea79  ti_sysbios_family_arm_m3_Hwi_disableFxn__E                           
0000ea79  ti_sysbios_hal_Hwi_HwiProxy_disable__E                               
0000ea89  ti_sysbios_family_arm_m3_TaskSupport_getStackAlignment__E            
0000ea89  ti_sysbios_knl_Task_SupportProxy_getStackAlignment__E                
0000ea99  ti_sysbios_gates_GateHwi_enter__E                                    
0000eaa5  ti_sysbios_hal_Hwi_Params__init__S                                   
0000eab1  ti_sysbios_knl_Clock_Params__init__S                                 
0000eac9  ti_sysbios_knl_Queue_Object__get__S                                  
0000ead5  ti_sysbios_knl_Semaphore_Params__init__S                             
0000eaed  ti_sysbios_knl_Task_Params__init__S                                  
0000eaf9  xdc_runtime_Error_init__E                                            
0000eb05  xdc_runtime_Gate_enterSystem__E                                      
0000eb11  xdc_runtime_Memory_calloc__E                                         
0000eb1d  xdc_runtime_Memory_getMaxDefaultTypeAlign__E                         
0000eb29  ADCIntClear                                                          
0000eb33  I2CMasterDisable                                                     
0000eb3d  I2CMasterEnable                                                      
0000eb47  I2CTiva_init                                                         
0000eb51  I2C_transfer                                                         
0000eb65  PWMTimerTiva_getPeriodCounts                                         
0000eb6f  PWM_setDuty                                                          
0000eb79  SSIDataPut                                                           
0000eb83  SSIEnable                                                            
0000eb8d  UARTCharGet                                                          
0000eb97  UARTCharPut                                                          
0000eba1  UARTIntDisable                                                       
0000ebab  UARTIntStatus                                                        
0000ebb5  UART_read                                                            
0000ebbf  UART_write                                                           
0000ebc9  UserInterfaceDraw                                                    
0000ebe1  ti_sysbios_hal_Hwi_Instance_finalize__E                              
0000ebeb  xdc_runtime_Memory_HeapProxy_alloc__E                                
0000ebf5  xdc_runtime_Memory_HeapProxy_free__E                                 
0000ebff  EK_TM4C1294XL_initGPIO                                               
0000ec07  GrMapISO8859_1_Unicode                                               
0000ec0f  I2CMasterIntClear                                                    
0000ec17  I2CMasterSlaveAddrSet                                                
0000ec27  PWMTimerTiva_init                                                    
0000ec2f  SSIBusy                                                              
0000ec37  UARTIntEnable                                                        
0000ec3f  UARTRxErrorGet                                                       
0000ec49  __aeabi_errno_addr                                                   
0000ec59  ti_sysbios_family_arm_lm4_Timer_masterDisable__I                     
0000ec61  ti_sysbios_family_arm_m3_Hwi_doSwiRestore__I                         
0000ec69  ti_sysbios_family_arm_m3_Hwi_startup__E                              
0000ec69  ti_sysbios_hal_Hwi_HwiProxy_startup__E                               
0000ec69  ti_sysbios_hal_Hwi_startup__E                                        
0000ec79  I2CTiva_control                                                      
0000ec7f  PWMTimerTiva_getPeriodMicroSecs                                      
0000ec85  SysCtlDelay                                                          
0000ec8b  UARTFIFOLevelSet                                                     
0000ec91  UARTRxErrorClear                                                     
0000ec97  WidgetMutexPut                                                       
0000eca1  ti_sysbios_family_arm_m3_Hwi_doTaskRestore__I                        
0000eca9  ti_sysbios_family_arm_m3_Hwi_restoreFxn__E                           
0000eca9  ti_sysbios_hal_Hwi_HwiProxy_restore__E                               
0000ecb1  ti_sysbios_gates_GateHwi_leave__E                                    
0000ecb9  ti_sysbios_heaps_HeapMem_isBlocking__E                               
0000ecc1  ti_sysbios_knl_Clock_stop__E                                         
0000ecc9  ti_sysbios_knl_Queue_Instance_init__E                                
0000ecd1  ti_sysbios_knl_Swi_startup__E                                        
0000ecd7  xdc_runtime_System_Module_startup__E                                 
0000ece1  ti_sysbios_gates_GateHwi_query__E                                    
0000ece1  xdc_runtime_Main_Module_GateProxy_query__E                           
0000ece1  xdc_runtime_System_Module_GateProxy_query__E                         
0000ece9  ti_sysbios_BIOS_RtsGateProxy_query__E                                
0000ece9  ti_sysbios_gates_GateMutex_query__E                                  
0000ece9  ti_sysbios_heaps_HeapMem_Module_GateProxy_query__E                   
0000ecf1  ti_sysbios_knl_Task_startup__E                                       
0000ecf9  ti_sysbios_gates_GateHwi_Instance_init__E                            
0000ed01  ti_sysbios_knl_Clock_logTick__E                                      
0000ed08  xdc_runtime_Text_charTab__A                                          
0001055a  ti_catalog_arm_cortexm4_tiva_ce_Boot_Module__id__C                   
0001055c  ti_catalog_arm_cortexm4_tiva_ce_Boot_A_mustNotUseEnhancedClockMode__C
00011ce2  ti_sysbios_family_arm_m3_Hwi_Module__id__C                           
00011fb4  _ctypes_                                                             
000120b5  xdc_runtime_Error_policy__C                                          
000120b6  ti_sysbios_heaps_HeapMem_Module__id__C                               
000120b8  g_sFontCmss18b                                                       
00012246  xdc_runtime_Text_nodeTab__A                                          
00012302  xdc_runtime_Core_Module__id__C                                       
0001253c  PWM_config                                                           
000125f0  motorLibPWMTivaHWAttrs                                               
000127b8  ti_sysbios_knl_Task_Object__PARAMS__C                                
00012854  ti_sysbios_family_arm_m3_Hwi_Object__PARAMS__C                       
00012884  uartTivaHWAttrs                                                      
000128b4  ti_sysbios_hal_Hwi_Object__PARAMS__C                                 
000128e0  UARTTiva_fxnTable                                                    
00012908  g_sKentec320x240x16_SSD2119                                          
00012930  ti_sysbios_heaps_HeapMem_Module__FXNS__C                             
00012958  UART_config                                                          
0001297c  UART_defaultParams                                                   
000129a0  ti_sysbios_gates_GateHwi_Module__FXNS__C                             
000129c4  ti_sysbios_gates_GateMutex_Module__FXNS__C                           
000129e8  ti_sysbios_heaps_HeapMem_Object__PARAMS__C                           
00012a0c  ti_sysbios_knl_Clock_Object__PARAMS__C                               
00012a30  ti_sysbios_knl_Semaphore_Object__PARAMS__C                           
00012a54  PWMTimerTiva_fxnTable                                                
00012a70  PWMTimerTiva_MAX_PRESCALAR_VALUE                                     
00012a72  PWMTimerTiva_MAX_MATCH_VALUE                                         
00012a74  PWMTiva_fxnTable                                                     
00012a90  PWMTiva_MAX_PRESCALAR                                                
00012a92  PWMTiva_MAX_MATCH_VALUE                                              
00012a94  ti_sysbios_family_arm_m3_Hwi_Object__DESC__C                         
00012ab4  ti_sysbios_gates_GateHwi_Object__DESC__C                             
00012ad4  ti_sysbios_gates_GateMutex_Object__DESC__C                           
00012af4  ti_sysbios_hal_Hwi_Object__DESC__C                                   
00012b14  ti_sysbios_heaps_HeapMem_Object__DESC__C                             
00012b34  ti_sysbios_knl_Clock_Object__DESC__C                                 
00012b54  ti_sysbios_knl_Queue_Object__DESC__C                                 
00012b74  ti_sysbios_knl_Semaphore_Object__DESC__C                             
00012b94  ti_sysbios_knl_Task_Object__DESC__C                                  
00012bb4  xdc_runtime_Startup_sfxnTab__A                                       
00012bd4  I2CTiva_fxnTable                                                     
00012bf0  g_pi32TouchParameters                                                
00012c0c  I2C_config                                                           
00012c24  ti_sysbios_gates_GateHwi_Object__PARAMS__C                           
00012c3c  ti_sysbios_gates_GateMutex_Object__PARAMS__C                         
00012c54  ti_sysbios_knl_Queue_Object__PARAMS__C                               
00012c6c  GPIOTiva_config                                                      
00012c80  xdc_runtime_Startup_firstFxns__A                                     
00012c94  I2C_defaultParams                                                    
00012ca4  g_psDefaultCodePointMapTable                                         
00012cb4  motorLibPWMTimerTivaHWAttrs                                          
00012cc4  xdc_runtime_Startup_sfxnRts__A                                       
00012cd4  PWM_defaultParams                                                    
00012ce0  i2cTivaHWAttrs                                                       
00012cfc  ti_sysbios_family_arm_m3_Hwi_excHookFuncs__A                         
00012d04  ti_sysbios_knl_Idle_funcList__C                                      
00012d0c  xdc_runtime_Startup_firstFxns__C                                     
00012d14  xdc_runtime_Startup_lastFxns__C                                      
00012d1c  ti_catalog_arm_cortexm4_tiva_ce_Boot_Module__diagsEnabled__C         
00012d20  ti_catalog_arm_cortexm4_tiva_ce_Boot_Module__diagsIncluded__C        
00012d24  ti_catalog_arm_cortexm4_tiva_ce_Boot_Module__diagsMask__C            
00012d28  ti_sysbios_family_arm_lm4_Timer_enableFunc__C                        
00012d2c  ti_sysbios_family_arm_lm4_Timer_numTimerDevices__C                   
00012d30  ti_sysbios_family_arm_lm4_Timer_startupNeeded__C                     
00012d34  ti_sysbios_family_arm_m3_Hwi_E_NMI__C                                
00012d38  ti_sysbios_family_arm_m3_Hwi_E_alreadyDefined__C                     
00012d3c  ti_sysbios_family_arm_m3_Hwi_E_busFault__C                           
00012d40  ti_sysbios_family_arm_m3_Hwi_E_debugMon__C                           
00012d44  ti_sysbios_family_arm_m3_Hwi_E_hardFault__C                          
00012d48  ti_sysbios_family_arm_m3_Hwi_E_memFault__C                           
00012d4c  ti_sysbios_family_arm_m3_Hwi_E_noIsr__C                              
00012d50  ti_sysbios_family_arm_m3_Hwi_E_reserved__C                           
00012d54  ti_sysbios_family_arm_m3_Hwi_E_svCall__C                             
00012d58  ti_sysbios_family_arm_m3_Hwi_E_usageFault__C                         
00012d5c  ti_sysbios_family_arm_m3_Hwi_NUM_INTERRUPTS__C                       
00012d60  ti_sysbios_family_arm_m3_Hwi_Object__count__C                        
00012d64  ti_sysbios_family_arm_m3_Hwi_ccr__C                                  
00012d68  ti_sysbios_family_arm_m3_Hwi_excHandlerFunc__C                       
00012d6c  ti_sysbios_family_arm_m3_Hwi_excHookFuncs__C                         
00012d70  ti_sysbios_family_arm_m3_Hwi_nullIsrFunc__C                          
00012d74  ti_sysbios_family_arm_m3_Hwi_priGroup__C                             
00012d78  ti_sysbios_family_arm_m3_TaskSupport_stackAlignment__C               
00012d7c  ti_sysbios_gates_GateMutex_Instance_State_sem__O                     
00012d80  ti_sysbios_heaps_HeapMem_E_memory__C                                 
00012d84  ti_sysbios_heaps_HeapMem_Module__gateObj__C                          
00012d88  ti_sysbios_heaps_HeapMem_Object__count__C                            
00012d8c  ti_sysbios_heaps_HeapMem_reqAlign__C                                 
00012d90  ti_sysbios_knl_Clock_Module_State_clockQ__O                          
00012d94  ti_sysbios_knl_Idle_funcList__A                                      
00012d98  ti_sysbios_knl_Semaphore_Instance_State_pendQ__O                     
00012d9c  ti_sysbios_knl_Swi_Object__count__C                                  
00012da0  ti_sysbios_knl_Task_Module_State_inactiveQ__O                        
00012da4  ti_sysbios_knl_Task_Object__count__C                                 
00012da8  ti_sysbios_knl_Task_allBlockedFunc__C                                
00012dac  ti_sysbios_knl_Task_defaultStackHeap__C                              
00012db0  ti_sysbios_knl_Task_defaultStackSize__C                              
00012db4  ti_sysbios_knl_Task_numConstructedTasks__C                           
00012db8  xdc_runtime_Assert_E_assertFailed__C                                 
00012dbc  xdc_runtime_Core_A_initializedParams__C                              
00012dc0  xdc_runtime_Core_Module__diagsEnabled__C                             
00012dc4  xdc_runtime_Core_Module__diagsIncluded__C                            
00012dc8  xdc_runtime_Core_Module__diagsMask__C                                
00012dcc  xdc_runtime_Error_E_generic__C                                       
00012dd0  xdc_runtime_Error_E_memory__C                                        
00012dd4  xdc_runtime_Error_Module__diagsEnabled__C                            
00012dd8  xdc_runtime_Error_Module__diagsIncluded__C                           
00012ddc  xdc_runtime_Error_Module__diagsMask__C                               
00012de0  xdc_runtime_Error_Module__loggerFxn8__C                              
00012de4  xdc_runtime_Error_Module__loggerObj__C                               
00012de8  xdc_runtime_Error_policyFxn__C                                       
00012dec  xdc_runtime_Error_raiseHook__C                                       
00012df0  xdc_runtime_IGateProvider_Interface__BASE__C                         
00012df4  xdc_runtime_IHeap_Interface__BASE__C                                 
00012df8  xdc_runtime_IModule_Interface__BASE__C                               
00012dfc  xdc_runtime_Log_L_error__C                                           
00012e00  xdc_runtime_Memory_defaultHeapInstance__C                            
00012e04  xdc_runtime_Startup_execImpl__C                                      
00012e08  xdc_runtime_Startup_maxPasses__C                                     
00012e0c  xdc_runtime_Startup_sfxnRts__C                                       
00012e10  xdc_runtime_Startup_sfxnTab__C                                       
00012e14  xdc_runtime_SysMin_bufSize__C                                        
00012e18  xdc_runtime_SysMin_outputFunc__C                                     
00012e1c  xdc_runtime_System_Module__gateObj__C                                
00012e20  xdc_runtime_System_abortFxn__C                                       
00012e24  xdc_runtime_System_exitFxn__C                                        
00012e28  xdc_runtime_System_extendFxn__C                                      
00012e2c  xdc_runtime_System_maxAtexitHandlers__C                              
00012e30  xdc_runtime_Text_charTab__C                                          
00012e34  xdc_runtime_Text_nameEmpty__C                                        
00012e38  xdc_runtime_Text_nameStatic__C                                       
00012e3c  xdc_runtime_Text_nameUnknown__C                                      
00012e40  xdc_runtime_Text_nodeTab__C                                          
00012e44  xdc_runtime_Text_visitRopeFxn__C                                     
00012e48  xdc_runtime_Error_Module__loggerDefined__C                           
00012e4a  xdc_runtime_Error_maxDepth__C                                        
00012e4c  xdc_runtime_Main_Module__id__C                                       
00012e4e  xdc_runtime_Memory_Module__id__C                                     
00012e50  xdc_runtime_SysMin_flushAtExit__C                                    
00012e52  xdc_runtime_Text_charCnt__C                                          
00012e54  xdc_runtime_Text_isLoaded__C                                         
00012e56  xdc_runtime_Text_registryModsLastId__C                               
00012e58  xdc_runtime_Text_unnamedModsLastId__C                                
00012e60  __TI_static_base__                                                   
00013248  __TI_Handler_Table_Base                                              
00013254  __TI_Handler_Table_Limit                                             
00013268  __TI_CINIT_Base                                                      
00013280  __TI_CINIT_Limit                                                     
20000000  ti_sysbios_family_arm_m3_Hwi_ramVectors                              
20000360  __stack                                                              
20004360  __STACK_END                                                          
20004360  taskSeStack                                                          
20005360  taskUiStack                                                          
20006360  ti_sysbios_heaps_HeapMem_Instance_State_0_buf__A                     
20006760  ti_sysbios_family_arm_m3_Hwi_dispatchTable                           
20006ac0  taskAccelStack                                                       
20006cc0  taskLightStack                                                       
20006ec0  taskTempStack                                                        
200070c0  uartTivaObjects                                                      
20007398  __CIOBUF_                                                            
20007548  i2cTivaObjects                                                       
200075c8  xdc_runtime_SysMin_Module_State_0_outbuf__A                          
20007648  uartTivaRingBuffer                                                   
20007688  motorLibPWMObjects                                                   
200076c0  sContext                                                             
200076ec  currentBuffer                                                        
20007714  powerBuffer                                                          
2000773c  clkDrawStruct                                                        
20007760  clkSensorParams                                                      
20007784  clkUIStruct                                                          
200077a8  clockAccelerationStruct                                              
200077cc  clockCurrentStruct                                                   
200077f0  clockLightStruct                                                     
20007814  clockTempStruct                                                      
200078d4  semAccelStruct                                                       
200078f0  semLightStruct                                                       
2000790c  semTempStruct                                                        
20007928  accelerationBuffer                                                   
20007940  lightBuffer                                                          
20007958  motorLibPWMTimerObjects                                              
20007970  rpm_buffer                                                           
20007988  textBuffer                                                           
200079ac  boardTempBuffer                                                      
200079bc  motorTempBuffer                                                      
200079d4  highLimit                                                            
200079dc  lowLimit                                                             
200079e4  parmbuf                                                              
200079ec  clkHandle                                                            
200079f0  clkHandleGraph                                                       
200079f4  g_pi32ParmSet                                                        
200079fc  gateHwi                                                              
20007a00  glThresholdAccel                                                     
20007a04  glThresholdCurrent                                                   
20007a0c  graphPageIdentifier                                                  
20007a10  maxGraph                                                             
20007a14  minGraph                                                             
20007a18  motorAccelerationLimit                                               
20007a1c  motorCurrentLimit                                                    
20007a20  motorSpeedLimit                                                      
20007a24  motorTemperatureLimit                                                
20007a28  semAccelHandle                                                       
20007a2c  semLightHandle                                                       
20007a30  semTempHandle                                                        
20007a34  sensori2c                                                            
20007a38  settingsPageIdentifier                                               
20007a3c  t1                                                                   
20007a40  uartTemp                                                             
20007a44  countCurrentTicks                                                    
20007a46  drawingGraph                                                         
20007a48  g_i16TouchX                                                          
20007a4a  g_i16TouchY                                                          
20007a4c  glThresholdTemp                                                      
20007a4e  height                                                               
20007a50  s_x                                                                  
20007a52  s_y                                                                  
20007a54  width                                                                
20007a56  boardTempAddr                                                        
20007a57  motorTempAddr                                                        
20007a58  ti_sysbios_knl_Swi_Module_State_0_readyQ__A                          
20007ad8  ti_sysbios_knl_Task_Module_State_0_readyQ__A                         
20007b58  g_sGraphAccel                                                        
20007ba8  g_sGraphActBack                                                      
20007bf8  g_sGraphAmbientTemp                                                  
20007c48  g_sGraphBack                                                         
20007c98  g_sGraphLight                                                        
20007ce8  g_sGraphMotorTemp                                                    
20007d38  g_sGraphOption                                                       
20007d88  g_sGraphPower                                                        
20007dd8  g_sGraphSpeed                                                        
20007e28  g_sMotorOption                                                       
20007e78  g_sSetAccel                                                          
20007ec8  g_sSetAdd                                                            
20007f18  g_sSetBack                                                           
20007f68  g_sSetCurrent                                                        
20007fb8  g_sSetMotor                                                          
20008008  g_sSetName                                                           
20008058  g_sSetOption                                                         
200080a8  g_sSetSave                                                           
200080f8  g_sSetSub                                                            
20008148  g_sSetTemp                                                           
20008198  g_sSetValue                                                          
200081e8  ti_sysbios_knl_Task_Module__state__V                                 
2000822c  g_sGraph                                                             
2000826c  g_sGraphPage                                                         
200082ac  g_sMenuGraphPage                                                     
200082ec  g_sMenuSetPage                                                       
2000832c  g_sMenuTypePage                                                      
2000836c  g_sSettingPage                                                       
200083ac  ti_sysbios_family_arm_lm4_Timer_Module_State_0_device__A             
200083ec  ti_sysbios_family_arm_lm4_Timer_Object__table__V                     
2000842c  ti_sysbios_gates_GateMutex_Object__table__V                          
20008464  ti_sysbios_family_arm_m3_Hwi_Module__state__V                        
20008498  ti_sysbios_knl_Swi_Object__table__V                                  
200084c8  g_sRoot                                                              
200084f5  isDay                                                                
200084f6  shouldDrawDateTime                                                   
200084f7  shouldDrawDataOnGraph                                                
200084f8  ti_sysbios_knl_Clock_Module__state__V                                
20008548  ti_sysbios_BIOS_Module__state__V                                     
2000856c  gpioPinConfigs                                                       
2000858c  ti_sysbios_family_arm_lm4_Timer_Module_State_0_handles__A            
200085ac  ti_sysbios_knl_Clock_Object__table__V                                
200085cc  ti_sysbios_knl_Swi_Module__state__V                                  
200085e8  rotations                                                            
200085ec  speed_rpm                                                            
200085f0  desired_speed_rpm                                                    
200085f4  accel_speed                                                          
200085f8  cum_speed_error                                                      
200085fc  rpm_index                                                            
20008600  motor_on                                                             
20008601  estop                                                                
2000861a  ti_sysbios_family_arm_m3_Hwi_Module_State_0_excActive__A             
2000861c  gpioCallbackFunctions                                                
20008634  ti_sysbios_family_arm_m3_Hwi_Object__table__V                        
2000864c  ti_sysbios_heaps_HeapMem_Object__table__V                            
20008664  _tz                                                                  
20008674  e2prom_read_settings                                                 
20008684  e2prom_write_settings                                                
20008694  motorState                                                           
20008698  homeScreenFlag                                                       
2000869c  pointsCount                                                          
200086a0  previousSample                                                       
200086a4  ti_sysbios_family_arm_lm4_Timer_Module__state__V                     
200086b0  xdc_runtime_SysMin_Module__state__V                                  
200086bc  _lock                                                                
200086c0  _unlock                                                              
200086c4  ti_sysbios_family_arm_m3_Hwi_Module__root__V                         
200086cc  ti_sysbios_gates_GateHwi_Module__root__V                             
200086d4  ti_sysbios_gates_GateMutex_Module__root__V                           
200086dc  ti_sysbios_hal_Hwi_Module__root__V                                   
200086e4  ti_sysbios_heaps_HeapMem_Module__root__V                             
200086ec  ti_sysbios_knl_Clock_Module__root__V                                 
200086f4  ti_sysbios_knl_Queue_Module__root__V                                 
200086fc  ti_sysbios_knl_Semaphore_Module__root__V                             
20008704  ti_sysbios_knl_Task_Module__root__V                                  
2000870c  xdc_runtime_Registry_Module__state__V                                
20008714  xdc_runtime_Startup_Module__state__V                                 
2000871c  xdc_runtime_System_Module_State_0_atexitHandlers__A                  
20008724  xdc_runtime_System_Module__state__V                                  
20008736  xdc_runtime_Error_Module__state__V                                   
20008744  errno                                                                
20008748  main_func_sp                                                         
2000874c  ti_sysbios_family_arm_m3_Hwi_Module_State_0_excContext__A            
20008750  ti_sysbios_family_arm_m3_Hwi_Module_State_0_excStack__A              
20008754  ti_sysbios_gates_GateHwi_Object__table__V                            
20008758  ti_sysbios_knl_Task_Module_State_0_idleTask__A                       
2000875c  g_i16TouchMin                                                        
20008760  xdc_runtime_Memory_Module__state__V                                  
e000e000  ti_sysbios_family_arm_m3_Hwi_nvic                                    
ffffffff  __TI_pprof_out_hndl                                                  
ffffffff  __TI_prof_data_size                                                  
ffffffff  __TI_prof_data_start                                                 
ffffffff  __binit__                                                            
ffffffff  __c_args__                                                           
ffffffff  binit                                                                
UNDEFED   SHT$$INIT_ARRAY$$Base                                                
UNDEFED   SHT$$INIT_ARRAY$$Limit                                               

[949 symbols]
